Archive member included to satisfy reference by file (symbol)

/home/deh/launchpad/gcc-arm-none-eabi-5_4-2016q3/bin/../lib/gcc/arm-none-eabi/5.4.1/../../../../arm-none-eabi/lib/armv7-m/libc.a(lib_a-calloc.o)
                              build/SerialTaskSend.o (calloc)
/home/deh/launchpad/gcc-arm-none-eabi-5_4-2016q3/bin/../lib/gcc/arm-none-eabi/5.4.1/../../../../arm-none-eabi/lib/armv7-m/libc.a(lib_a-callocr.o)
                              /home/deh/launchpad/gcc-arm-none-eabi-5_4-2016q3/bin/../lib/gcc/arm-none-eabi/5.4.1/../../../../arm-none-eabi/lib/armv7-m/libc.a(lib_a-calloc.o) (_calloc_r)
/home/deh/launchpad/gcc-arm-none-eabi-5_4-2016q3/bin/../lib/gcc/arm-none-eabi/5.4.1/../../../../arm-none-eabi/lib/armv7-m/libc.a(lib_a-exit.o)
                              /home/deh/launchpad/gcc-arm-none-eabi-5_4-2016q3/bin/../lib/gcc/arm-none-eabi/5.4.1/../../../../arm-none-eabi/lib/armv7-m/crt0.o (exit)
/home/deh/launchpad/gcc-arm-none-eabi-5_4-2016q3/bin/../lib/gcc/arm-none-eabi/5.4.1/../../../../arm-none-eabi/lib/armv7-m/libc.a(lib_a-impure.o)
                              /home/deh/launchpad/gcc-arm-none-eabi-5_4-2016q3/bin/../lib/gcc/arm-none-eabi/5.4.1/../../../../arm-none-eabi/lib/armv7-m/libc.a(lib_a-exit.o) (_global_impure_ptr)
/home/deh/launchpad/gcc-arm-none-eabi-5_4-2016q3/bin/../lib/gcc/arm-none-eabi/5.4.1/../../../../arm-none-eabi/lib/armv7-m/libc.a(lib_a-init.o)
                              /home/deh/launchpad/gcc-arm-none-eabi-5_4-2016q3/bin/../lib/gcc/arm-none-eabi/5.4.1/../../../../arm-none-eabi/lib/armv7-m/crt0.o (__libc_init_array)
/home/deh/launchpad/gcc-arm-none-eabi-5_4-2016q3/bin/../lib/gcc/arm-none-eabi/5.4.1/../../../../arm-none-eabi/lib/armv7-m/libc.a(lib_a-mallocr.o)
                              /home/deh/launchpad/gcc-arm-none-eabi-5_4-2016q3/bin/../lib/gcc/arm-none-eabi/5.4.1/../../../../arm-none-eabi/lib/armv7-m/libc.a(lib_a-callocr.o) (_malloc_r)
/home/deh/launchpad/gcc-arm-none-eabi-5_4-2016q3/bin/../lib/gcc/arm-none-eabi/5.4.1/../../../../arm-none-eabi/lib/armv7-m/libc.a(lib_a-memcpy.o)
                              build/queue.o (memcpy)
/home/deh/launchpad/gcc-arm-none-eabi-5_4-2016q3/bin/../lib/gcc/arm-none-eabi/5.4.1/../../../../arm-none-eabi/lib/armv7-m/libc.a(lib_a-memset.o)
                              /home/deh/launchpad/gcc-arm-none-eabi-5_4-2016q3/bin/../lib/gcc/arm-none-eabi/5.4.1/../../../../arm-none-eabi/lib/armv7-m/crt0.o (memset)
/home/deh/launchpad/gcc-arm-none-eabi-5_4-2016q3/bin/../lib/gcc/arm-none-eabi/5.4.1/../../../../arm-none-eabi/lib/armv7-m/libc.a(lib_a-mlock.o)
                              /home/deh/launchpad/gcc-arm-none-eabi-5_4-2016q3/bin/../lib/gcc/arm-none-eabi/5.4.1/../../../../arm-none-eabi/lib/armv7-m/libc.a(lib_a-mallocr.o) (__malloc_lock)
/home/deh/launchpad/gcc-arm-none-eabi-5_4-2016q3/bin/../lib/gcc/arm-none-eabi/5.4.1/../../../../arm-none-eabi/lib/armv7-m/libc.a(lib_a-sbrkr.o)
                              /home/deh/launchpad/gcc-arm-none-eabi-5_4-2016q3/bin/../lib/gcc/arm-none-eabi/5.4.1/../../../../arm-none-eabi/lib/armv7-m/libc.a(lib_a-mallocr.o) (_sbrk_r)
/home/deh/launchpad/gcc-arm-none-eabi-5_4-2016q3/bin/../lib/gcc/arm-none-eabi/5.4.1/../../../../arm-none-eabi/lib/armv7-m/libc.a(lib_a-strlen-stub.o)
                              build/tasks.o (strlen)
/home/deh/launchpad/gcc-arm-none-eabi-5_4-2016q3/bin/../lib/gcc/arm-none-eabi/5.4.1/../../../../arm-none-eabi/lib/armv7-m/libc.a(lib_a-strncpy.o)
                              build/yprintf.o (strncpy)
/home/deh/launchpad/gcc-arm-none-eabi-5_4-2016q3/bin/../lib/gcc/arm-none-eabi/5.4.1/../../../../arm-none-eabi/lib/armv7-m/libc.a(lib_a-vsnprintf.o)
                              build/yprintf.o (vsnprintf)
/home/deh/launchpad/gcc-arm-none-eabi-5_4-2016q3/bin/../lib/gcc/arm-none-eabi/5.4.1/../../../../arm-none-eabi/lib/armv7-m/libc.a(lib_a-__call_atexit.o)
                              /home/deh/launchpad/gcc-arm-none-eabi-5_4-2016q3/bin/../lib/gcc/arm-none-eabi/5.4.1/../../../../arm-none-eabi/lib/armv7-m/libc.a(lib_a-exit.o) (__call_exitprocs)
/home/deh/launchpad/gcc-arm-none-eabi-5_4-2016q3/bin/../lib/gcc/arm-none-eabi/5.4.1/../../../../arm-none-eabi/lib/armv7-m/libc.a(lib_a-atexit.o)
                              /home/deh/launchpad/gcc-arm-none-eabi-5_4-2016q3/bin/../lib/gcc/arm-none-eabi/5.4.1/../../../../arm-none-eabi/lib/armv7-m/libc.a(lib_a-__call_atexit.o) (atexit)
/home/deh/launchpad/gcc-arm-none-eabi-5_4-2016q3/bin/../lib/gcc/arm-none-eabi/5.4.1/../../../../arm-none-eabi/lib/armv7-m/libc.a(lib_a-fini.o)
                              /home/deh/launchpad/gcc-arm-none-eabi-5_4-2016q3/bin/../lib/gcc/arm-none-eabi/5.4.1/../../../../arm-none-eabi/lib/armv7-m/libc.a(lib_a-__call_atexit.o) (__libc_fini_array)
/home/deh/launchpad/gcc-arm-none-eabi-5_4-2016q3/bin/../lib/gcc/arm-none-eabi/5.4.1/../../../../arm-none-eabi/lib/armv7-m/libc.a(lib_a-freer.o)
                              /home/deh/launchpad/gcc-arm-none-eabi-5_4-2016q3/bin/../lib/gcc/arm-none-eabi/5.4.1/../../../../arm-none-eabi/lib/armv7-m/libc.a(lib_a-mallocr.o) (_free_r)
/home/deh/launchpad/gcc-arm-none-eabi-5_4-2016q3/bin/../lib/gcc/arm-none-eabi/5.4.1/../../../../arm-none-eabi/lib/armv7-m/libc.a(lib_a-reent.o)
                              /home/deh/launchpad/gcc-arm-none-eabi-5_4-2016q3/bin/../lib/gcc/arm-none-eabi/5.4.1/../../../../arm-none-eabi/lib/armv7-m/libc.a(lib_a-sbrkr.o) (errno)
/home/deh/launchpad/gcc-arm-none-eabi-5_4-2016q3/bin/../lib/gcc/arm-none-eabi/5.4.1/../../../../arm-none-eabi/lib/armv7-m/libc.a(lib_a-svfprintf.o)
                              /home/deh/launchpad/gcc-arm-none-eabi-5_4-2016q3/bin/../lib/gcc/arm-none-eabi/5.4.1/../../../../arm-none-eabi/lib/armv7-m/libc.a(lib_a-vsnprintf.o) (_svfprintf_r)
/home/deh/launchpad/gcc-arm-none-eabi-5_4-2016q3/bin/../lib/gcc/arm-none-eabi/5.4.1/../../../../arm-none-eabi/lib/armv7-m/libc.a(lib_a-__atexit.o)
                              /home/deh/launchpad/gcc-arm-none-eabi-5_4-2016q3/bin/../lib/gcc/arm-none-eabi/5.4.1/../../../../arm-none-eabi/lib/armv7-m/libc.a(lib_a-atexit.o) (__register_exitproc)
/home/deh/launchpad/gcc-arm-none-eabi-5_4-2016q3/bin/../lib/gcc/arm-none-eabi/5.4.1/../../../../arm-none-eabi/lib/armv7-m/libc.a(lib_a-dtoa.o)
                              /home/deh/launchpad/gcc-arm-none-eabi-5_4-2016q3/bin/../lib/gcc/arm-none-eabi/5.4.1/../../../../arm-none-eabi/lib/armv7-m/libc.a(lib_a-svfprintf.o) (_dtoa_r)
/home/deh/launchpad/gcc-arm-none-eabi-5_4-2016q3/bin/../lib/gcc/arm-none-eabi/5.4.1/../../../../arm-none-eabi/lib/armv7-m/libc.a(lib_a-localeconv.o)
                              /home/deh/launchpad/gcc-arm-none-eabi-5_4-2016q3/bin/../lib/gcc/arm-none-eabi/5.4.1/../../../../arm-none-eabi/lib/armv7-m/libc.a(lib_a-svfprintf.o) (_localeconv_r)
/home/deh/launchpad/gcc-arm-none-eabi-5_4-2016q3/bin/../lib/gcc/arm-none-eabi/5.4.1/../../../../arm-none-eabi/lib/armv7-m/libc.a(lib_a-memchr-stub.o)
                              /home/deh/launchpad/gcc-arm-none-eabi-5_4-2016q3/bin/../lib/gcc/arm-none-eabi/5.4.1/../../../../arm-none-eabi/lib/armv7-m/libc.a(lib_a-svfprintf.o) (memchr)
/home/deh/launchpad/gcc-arm-none-eabi-5_4-2016q3/bin/../lib/gcc/arm-none-eabi/5.4.1/../../../../arm-none-eabi/lib/armv7-m/libc.a(lib_a-mprec.o)
                              /home/deh/launchpad/gcc-arm-none-eabi-5_4-2016q3/bin/../lib/gcc/arm-none-eabi/5.4.1/../../../../arm-none-eabi/lib/armv7-m/libc.a(lib_a-dtoa.o) (_Balloc)
/home/deh/launchpad/gcc-arm-none-eabi-5_4-2016q3/bin/../lib/gcc/arm-none-eabi/5.4.1/../../../../arm-none-eabi/lib/armv7-m/libc.a(lib_a-svfiprintf.o)
                              /home/deh/launchpad/gcc-arm-none-eabi-5_4-2016q3/bin/../lib/gcc/arm-none-eabi/5.4.1/../../../../arm-none-eabi/lib/armv7-m/libc.a(lib_a-svfprintf.o) (__ssprint_r)
/home/deh/launchpad/gcc-arm-none-eabi-5_4-2016q3/bin/../lib/gcc/arm-none-eabi/5.4.1/../../../../arm-none-eabi/lib/armv7-m/libc.a(lib_a-locale.o)
                              /home/deh/launchpad/gcc-arm-none-eabi-5_4-2016q3/bin/../lib/gcc/arm-none-eabi/5.4.1/../../../../arm-none-eabi/lib/armv7-m/libc.a(lib_a-localeconv.o) (__global_locale)
/home/deh/launchpad/gcc-arm-none-eabi-5_4-2016q3/bin/../lib/gcc/arm-none-eabi/5.4.1/../../../../arm-none-eabi/lib/armv7-m/libc.a(lib_a-mbtowc_r.o)
                              /home/deh/launchpad/gcc-arm-none-eabi-5_4-2016q3/bin/../lib/gcc/arm-none-eabi/5.4.1/../../../../arm-none-eabi/lib/armv7-m/libc.a(lib_a-locale.o) (__ascii_mbtowc)
/home/deh/launchpad/gcc-arm-none-eabi-5_4-2016q3/bin/../lib/gcc/arm-none-eabi/5.4.1/../../../../arm-none-eabi/lib/armv7-m/libc.a(lib_a-memmove.o)
                              /home/deh/launchpad/gcc-arm-none-eabi-5_4-2016q3/bin/../lib/gcc/arm-none-eabi/5.4.1/../../../../arm-none-eabi/lib/armv7-m/libc.a(lib_a-svfiprintf.o) (memmove)
/home/deh/launchpad/gcc-arm-none-eabi-5_4-2016q3/bin/../lib/gcc/arm-none-eabi/5.4.1/../../../../arm-none-eabi/lib/armv7-m/libc.a(lib_a-reallocr.o)
                              /home/deh/launchpad/gcc-arm-none-eabi-5_4-2016q3/bin/../lib/gcc/arm-none-eabi/5.4.1/../../../../arm-none-eabi/lib/armv7-m/libc.a(lib_a-svfiprintf.o) (_realloc_r)
/home/deh/launchpad/gcc-arm-none-eabi-5_4-2016q3/bin/../lib/gcc/arm-none-eabi/5.4.1/../../../../arm-none-eabi/lib/armv7-m/libc.a(lib_a-strcmp.o)
                              /home/deh/launchpad/gcc-arm-none-eabi-5_4-2016q3/bin/../lib/gcc/arm-none-eabi/5.4.1/../../../../arm-none-eabi/lib/armv7-m/libc.a(lib_a-locale.o) (strcmp)
/home/deh/launchpad/gcc-arm-none-eabi-5_4-2016q3/bin/../lib/gcc/arm-none-eabi/5.4.1/../../../../arm-none-eabi/lib/armv7-m/libc.a(lib_a-wctomb_r.o)
                              /home/deh/launchpad/gcc-arm-none-eabi-5_4-2016q3/bin/../lib/gcc/arm-none-eabi/5.4.1/../../../../arm-none-eabi/lib/armv7-m/libc.a(lib_a-locale.o) (__ascii_wctomb)
/home/deh/launchpad/gcc-arm-none-eabi-5_4-2016q3/bin/../lib/gcc/arm-none-eabi/5.4.1/../../../../arm-none-eabi/lib/armv7-m/libc.a(lib_a-ctype_.o)
                              /home/deh/launchpad/gcc-arm-none-eabi-5_4-2016q3/bin/../lib/gcc/arm-none-eabi/5.4.1/../../../../arm-none-eabi/lib/armv7-m/libc.a(lib_a-locale.o) (_ctype_)
/home/deh/launchpad/gcc-arm-none-eabi-5_4-2016q3/bin/../lib/gcc/arm-none-eabi/5.4.1/../../../../arm-none-eabi/lib/armv7-m/libnosys.a(sbrk.o)
                              /home/deh/launchpad/gcc-arm-none-eabi-5_4-2016q3/bin/../lib/gcc/arm-none-eabi/5.4.1/../../../../arm-none-eabi/lib/armv7-m/libc.a(lib_a-sbrkr.o) (_sbrk)
/home/deh/launchpad/gcc-arm-none-eabi-5_4-2016q3/bin/../lib/gcc/arm-none-eabi/5.4.1/../../../../arm-none-eabi/lib/armv7-m/libnosys.a(_exit.o)
                              /home/deh/launchpad/gcc-arm-none-eabi-5_4-2016q3/bin/../lib/gcc/arm-none-eabi/5.4.1/../../../../arm-none-eabi/lib/armv7-m/libc.a(lib_a-exit.o) (_exit)
/home/deh/launchpad/gcc-arm-none-eabi-5_4-2016q3/bin/../lib/gcc/arm-none-eabi/5.4.1/armv7-m/libgcc.a(_arm_addsubdf3.o)
                              build/main.o (__aeabi_dsub)
/home/deh/launchpad/gcc-arm-none-eabi-5_4-2016q3/bin/../lib/gcc/arm-none-eabi/5.4.1/armv7-m/libgcc.a(_arm_muldivdf3.o)
                              build/main.o (__aeabi_dmul)
/home/deh/launchpad/gcc-arm-none-eabi-5_4-2016q3/bin/../lib/gcc/arm-none-eabi/5.4.1/armv7-m/libgcc.a(_arm_cmpdf2.o)
                              /home/deh/launchpad/gcc-arm-none-eabi-5_4-2016q3/bin/../lib/gcc/arm-none-eabi/5.4.1/../../../../arm-none-eabi/lib/armv7-m/libc.a(lib_a-svfprintf.o) (__aeabi_dcmpeq)
/home/deh/launchpad/gcc-arm-none-eabi-5_4-2016q3/bin/../lib/gcc/arm-none-eabi/5.4.1/armv7-m/libgcc.a(_arm_unorddf2.o)
                              /home/deh/launchpad/gcc-arm-none-eabi-5_4-2016q3/bin/../lib/gcc/arm-none-eabi/5.4.1/../../../../arm-none-eabi/lib/armv7-m/libc.a(lib_a-svfprintf.o) (__aeabi_dcmpun)
/home/deh/launchpad/gcc-arm-none-eabi-5_4-2016q3/bin/../lib/gcc/arm-none-eabi/5.4.1/armv7-m/libgcc.a(_arm_fixdfsi.o)
                              build/adcparamsinit.o (__aeabi_d2iz)
/home/deh/launchpad/gcc-arm-none-eabi-5_4-2016q3/bin/../lib/gcc/arm-none-eabi/5.4.1/armv7-m/libgcc.a(_arm_fixunsdfsi.o)
                              build/adcparamsinit.o (__aeabi_d2uiz)
/home/deh/launchpad/gcc-arm-none-eabi-5_4-2016q3/bin/../lib/gcc/arm-none-eabi/5.4.1/armv7-m/libgcc.a(_arm_truncdfsf2.o)
                              build/contactor_cmd_msg.o (__aeabi_d2f)
/home/deh/launchpad/gcc-arm-none-eabi-5_4-2016q3/bin/../lib/gcc/arm-none-eabi/5.4.1/armv7-m/libgcc.a(_arm_addsubsf3.o)
                              build/main.o (__aeabi_ui2f)
/home/deh/launchpad/gcc-arm-none-eabi-5_4-2016q3/bin/../lib/gcc/arm-none-eabi/5.4.1/armv7-m/libgcc.a(_arm_muldivsf3.o)
                              build/iir_filter_lx.o (__aeabi_fdiv)
/home/deh/launchpad/gcc-arm-none-eabi-5_4-2016q3/bin/../lib/gcc/arm-none-eabi/5.4.1/armv7-m/libgcc.a(_aeabi_uldivmod.o)
                              /home/deh/launchpad/gcc-arm-none-eabi-5_4-2016q3/bin/../lib/gcc/arm-none-eabi/5.4.1/../../../../arm-none-eabi/lib/armv7-m/libc.a(lib_a-svfprintf.o) (__aeabi_uldivmod)
/home/deh/launchpad/gcc-arm-none-eabi-5_4-2016q3/bin/../lib/gcc/arm-none-eabi/5.4.1/armv7-m/libgcc.a(_udivmoddi4.o)
                              /home/deh/launchpad/gcc-arm-none-eabi-5_4-2016q3/bin/../lib/gcc/arm-none-eabi/5.4.1/armv7-m/libgcc.a(_aeabi_uldivmod.o) (__udivmoddi4)
/home/deh/launchpad/gcc-arm-none-eabi-5_4-2016q3/bin/../lib/gcc/arm-none-eabi/5.4.1/armv7-m/libgcc.a(_dvmd_tls.o)
                              /home/deh/launchpad/gcc-arm-none-eabi-5_4-2016q3/bin/../lib/gcc/arm-none-eabi/5.4.1/armv7-m/libgcc.a(_aeabi_uldivmod.o) (__aeabi_ldiv0)

Allocating common symbols
Common symbol       size              file

defaultTaskHandle   0x4               build/main.o
dbgmsg1ctr          0x4               build/contactor_msgs.o
canflag1            0x1               build/main.o
adcdtmp             0x8               build/adcparamsinit.o
CanTxQHandle        0x4               build/CanTask.o
dbgadcratio         0x4               build/adcparams.o
htim4               0x40              build/main.o
errno               0x4               /home/deh/launchpad/gcc-arm-none-eabi-5_4-2016q3/bin/../lib/gcc/arm-none-eabi/5.4.1/../../../../arm-none-eabi/lib/armv7-m/libc.a(lib_a-reent.o)
huart3              0x40              build/main.o
dbgstmp             0x4               build/ContactorStates.o
dbgcanrxctr         0x4               build/can_iface.o
adc1dmatskblk       0x40              build/adctask.o
debug03             0x4               build/main.o
hcan                0x28              build/main.o
uwTick              0x4               build/stm32f1xx_hal.o
xQueueRegistry      0x40              build/queue.o
pFlash              0x20              build/stm32f1xx_hal_flash.o
contactorfunction   0x308             build/ContactorTask.o
debug03_prev        0x4               build/main.o
htim3               0x40              build/main.o
CanRxQHandle        0x4               build/CanTask.o
ContactorTaskHandle
                    0x4               build/ContactorTask.o
hdma_usart1_tx      0x44              build/main.o
dbggpsflag          0x4               build/ContactorEvents.o
hadc1               0x30              build/main.o
dbgevcmd            0x1               build/ContactorEvents.o
adc1                0x400             build/adcparams.o
SerialTaskSendQHandle
                    0x4               build/SerialTaskSend.o
hdma_usart1_rx      0x44              build/main.o
vsnprintfSemaphoreHandle
                    0x4               build/yprintf.o
dbgCE1              0x4               build/ContactorEvents.o
adcsumdb            0x18              build/ADCTask.o
huart1              0x40              build/main.o
ADCTaskHandle       0x4               build/ADCTask.o
dbgcantxctr         0x4               build/can_iface.o
debugTX1c_prev      0x4               build/main.o
pctl0               0x4               build/main.o
adcdbg2             0x4               build/adcparams.o
hdma_adc1           0x44              build/main.o
CanRxTaskHandle     0x4               build/CanTask.o
adcdbg1             0x4               build/adcparams.o
debugTX1c           0x4               build/main.o
htim1               0x40              build/main.o
dbgadcfil           0x4               build/adcparams.o
dbgmbxctr           0x4               build/MailboxTask.o
dbgev04             0x4               build/ContactorEvents.o
CanTxTaskHandle     0x4               build/CanTask.o
htim2               0x40              build/stm32f1xx_hal_timebase_tim.o
MailboxTaskHandle   0x4               build/MailboxTask.o
dbgkactr            0x4               build/contactor_msgs.o
canflag             0x1               build/main.o

Discarded input sections

 .text          0x00000000        0x0 /home/deh/launchpad/gcc-arm-none-eabi-5_4-2016q3/bin/../lib/gcc/arm-none-eabi/5.4.1/armv7-m/crti.o
 .data          0x00000000        0x0 /home/deh/launchpad/gcc-arm-none-eabi-5_4-2016q3/bin/../lib/gcc/arm-none-eabi/5.4.1/armv7-m/crti.o
 .bss           0x00000000        0x0 /home/deh/launchpad/gcc-arm-none-eabi-5_4-2016q3/bin/../lib/gcc/arm-none-eabi/5.4.1/armv7-m/crti.o
 .data          0x00000000        0x4 /home/deh/launchpad/gcc-arm-none-eabi-5_4-2016q3/bin/../lib/gcc/arm-none-eabi/5.4.1/armv7-m/crtbegin.o
 .text          0x00000000       0x74 /home/deh/launchpad/gcc-arm-none-eabi-5_4-2016q3/bin/../lib/gcc/arm-none-eabi/5.4.1/../../../../arm-none-eabi/lib/armv7-m/crt0.o
 .data          0x00000000        0x0 /home/deh/launchpad/gcc-arm-none-eabi-5_4-2016q3/bin/../lib/gcc/arm-none-eabi/5.4.1/../../../../arm-none-eabi/lib/armv7-m/crt0.o
 .bss           0x00000000        0x0 /home/deh/launchpad/gcc-arm-none-eabi-5_4-2016q3/bin/../lib/gcc/arm-none-eabi/5.4.1/../../../../arm-none-eabi/lib/armv7-m/crt0.o
 .ARM.extab     0x00000000        0x0 /home/deh/launchpad/gcc-arm-none-eabi-5_4-2016q3/bin/../lib/gcc/arm-none-eabi/5.4.1/../../../../arm-none-eabi/lib/armv7-m/crt0.o
 .ARM.exidx     0x00000000        0x8 /home/deh/launchpad/gcc-arm-none-eabi-5_4-2016q3/bin/../lib/gcc/arm-none-eabi/5.4.1/../../../../arm-none-eabi/lib/armv7-m/crt0.o
 .ARM.attributes
                0x00000000       0x1b /home/deh/launchpad/gcc-arm-none-eabi-5_4-2016q3/bin/../lib/gcc/arm-none-eabi/5.4.1/../../../../arm-none-eabi/lib/armv7-m/crt0.o
 .text          0x00000000        0x0 build/main.o
 .data          0x00000000        0x0 build/main.o
 .bss           0x00000000        0x0 build/main.o
 .text          0x00000000        0x0 build/stm32f1xx_it.o
 .data          0x00000000        0x0 build/stm32f1xx_it.o
 .bss           0x00000000        0x0 build/stm32f1xx_it.o
 .text          0x00000000        0x0 build/stm32f1xx_hal_msp.o
 .data          0x00000000        0x0 build/stm32f1xx_hal_msp.o
 .bss           0x00000000        0x0 build/stm32f1xx_hal_msp.o
 .text.HAL_ADC_MspDeInit
                0x00000000       0x34 build/stm32f1xx_hal_msp.o
 .text.HAL_CAN_MspDeInit
                0x00000000       0x40 build/stm32f1xx_hal_msp.o
 .text.HAL_TIM_Base_MspDeInit
                0x00000000       0x4c build/stm32f1xx_hal_msp.o
 .text.HAL_UART_MspDeInit
                0x00000000       0x6c build/stm32f1xx_hal_msp.o
 .text          0x00000000        0x0 build/stm32f1xx_hal_gpio_ex.o
 .data          0x00000000        0x0 build/stm32f1xx_hal_gpio_ex.o
 .bss           0x00000000        0x0 build/stm32f1xx_hal_gpio_ex.o
 .text.HAL_GPIOEx_ConfigEventout
                0x00000000       0x14 build/stm32f1xx_hal_gpio_ex.o
 .text.HAL_GPIOEx_EnableEventout
                0x00000000       0x10 build/stm32f1xx_hal_gpio_ex.o
 .text.HAL_GPIOEx_DisableEventout
                0x00000000       0x10 build/stm32f1xx_hal_gpio_ex.o
 .debug_info    0x00000000      0x19f build/stm32f1xx_hal_gpio_ex.o
 .debug_abbrev  0x00000000       0xdc build/stm32f1xx_hal_gpio_ex.o
 .debug_loc     0x00000000       0x21 build/stm32f1xx_hal_gpio_ex.o
 .debug_aranges
                0x00000000       0x30 build/stm32f1xx_hal_gpio_ex.o
 .debug_ranges  0x00000000       0x20 build/stm32f1xx_hal_gpio_ex.o
 .debug_line    0x00000000      0x1a6 build/stm32f1xx_hal_gpio_ex.o
 .debug_str     0x00000000      0x261 build/stm32f1xx_hal_gpio_ex.o
 .comment       0x00000000       0x6f build/stm32f1xx_hal_gpio_ex.o
 .debug_frame   0x00000000       0x40 build/stm32f1xx_hal_gpio_ex.o
 .ARM.attributes
                0x00000000       0x33 build/stm32f1xx_hal_gpio_ex.o
 .text          0x00000000        0x0 build/stm32f1xx_hal_tim.o
 .data          0x00000000        0x0 build/stm32f1xx_hal_tim.o
 .bss           0x00000000        0x0 build/stm32f1xx_hal_tim.o
 .text.TIM_TI2_SetConfig
                0x00000000       0x34 build/stm32f1xx_hal_tim.o
 .text.TIM_TI3_SetConfig
                0x00000000       0x34 build/stm32f1xx_hal_tim.o
 .text.TIM_TI4_SetConfig
                0x00000000       0x34 build/stm32f1xx_hal_tim.o
 .text.TIM_SlaveTimer_SetConfig
                0x00000000       0x78 build/stm32f1xx_hal_tim.o
 .text.HAL_TIM_Base_MspInit
                0x00000000        0x4 build/stm32f1xx_hal_tim.o
 .text.HAL_TIM_Base_MspDeInit
                0x00000000        0x4 build/stm32f1xx_hal_tim.o
 .text.HAL_TIM_Base_DeInit
                0x00000000       0x3c build/stm32f1xx_hal_tim.o
 .text.HAL_TIM_Base_Start
                0x00000000       0x1c build/stm32f1xx_hal_tim.o
 .text.HAL_TIM_Base_Stop
                0x00000000       0x30 build/stm32f1xx_hal_tim.o
 .text.HAL_TIM_Base_Stop_IT
                0x00000000       0x2c build/stm32f1xx_hal_tim.o
 .text.HAL_TIM_Base_Start_DMA
                0x00000000       0x64 build/stm32f1xx_hal_tim.o
 .text.HAL_TIM_Base_Stop_DMA
                0x00000000       0x34 build/stm32f1xx_hal_tim.o
 .text.HAL_TIM_OC_MspDeInit
                0x00000000        0x4 build/stm32f1xx_hal_tim.o
 .text.HAL_TIM_OC_DeInit
                0x00000000       0x3c build/stm32f1xx_hal_tim.o
 .text.HAL_TIM_PWM_MspDeInit
                0x00000000        0x4 build/stm32f1xx_hal_tim.o
 .text.HAL_TIM_PWM_DeInit
                0x00000000       0x3c build/stm32f1xx_hal_tim.o
 .text.HAL_TIM_IC_MspInit
                0x00000000        0x4 build/stm32f1xx_hal_tim.o
 .text.HAL_TIM_IC_MspDeInit
                0x00000000        0x4 build/stm32f1xx_hal_tim.o
 .text.HAL_TIM_IC_DeInit
                0x00000000       0x3c build/stm32f1xx_hal_tim.o
 .text.HAL_TIM_OnePulse_MspInit
                0x00000000        0x4 build/stm32f1xx_hal_tim.o
 .text.HAL_TIM_OnePulse_MspDeInit
                0x00000000        0x4 build/stm32f1xx_hal_tim.o
 .text.HAL_TIM_OnePulse_DeInit
                0x00000000       0x3c build/stm32f1xx_hal_tim.o
 .text.HAL_TIM_Encoder_MspInit
                0x00000000        0x4 build/stm32f1xx_hal_tim.o
 .text.HAL_TIM_Encoder_MspDeInit
                0x00000000        0x4 build/stm32f1xx_hal_tim.o
 .text.HAL_TIM_Encoder_DeInit
                0x00000000       0x3c build/stm32f1xx_hal_tim.o
 .text.HAL_TIM_DMABurst_WriteStart
                0x00000000      0x170 build/stm32f1xx_hal_tim.o
 .text.HAL_TIM_DMABurst_WriteStop
                0x00000000       0x7c build/stm32f1xx_hal_tim.o
 .text.HAL_TIM_DMABurst_ReadStart
                0x00000000      0x170 build/stm32f1xx_hal_tim.o
 .text.HAL_TIM_DMABurst_ReadStop
                0x00000000       0x7c build/stm32f1xx_hal_tim.o
 .text.HAL_TIM_GenerateEvent
                0x00000000       0x28 build/stm32f1xx_hal_tim.o
 .text.HAL_TIM_ConfigOCrefClear
                0x00000000       0xd0 build/stm32f1xx_hal_tim.o
 .text.HAL_TIM_ConfigTI1Input
                0x00000000       0x10 build/stm32f1xx_hal_tim.o
 .text.HAL_TIM_SlaveConfigSynchronization
                0x00000000       0x40 build/stm32f1xx_hal_tim.o
 .text.HAL_TIM_SlaveConfigSynchronization_IT
                0x00000000       0x40 build/stm32f1xx_hal_tim.o
 .text.HAL_TIM_ReadCapturedValue
                0x00000000       0x4c build/stm32f1xx_hal_tim.o
 .text.HAL_TIM_PeriodElapsedCallback
                0x00000000        0x4 build/stm32f1xx_hal_tim.o
 .text.TIM_DMAPeriodElapsedCplt
                0x00000000       0x10 build/stm32f1xx_hal_tim.o
 .text.TIM_DMACaptureCplt
                0x00000000       0x44 build/stm32f1xx_hal_tim.o
 .text.TIM_DMADelayPulseCplt
                0x00000000       0x44 build/stm32f1xx_hal_tim.o
 .text.TIM_DMATriggerCplt
                0x00000000       0x10 build/stm32f1xx_hal_tim.o
 .text.HAL_TIM_ErrorCallback
                0x00000000        0x4 build/stm32f1xx_hal_tim.o
 .text.TIM_DMAError
                0x00000000       0x10 build/stm32f1xx_hal_tim.o
 .text.HAL_TIM_Base_GetState
                0x00000000        0x8 build/stm32f1xx_hal_tim.o
 .text.HAL_TIM_OC_GetState
                0x00000000        0x8 build/stm32f1xx_hal_tim.o
 .text.HAL_TIM_PWM_GetState
                0x00000000        0x8 build/stm32f1xx_hal_tim.o
 .text.HAL_TIM_IC_GetState
                0x00000000        0x8 build/stm32f1xx_hal_tim.o
 .text.HAL_TIM_OnePulse_GetState
                0x00000000        0x8 build/stm32f1xx_hal_tim.o
 .text.HAL_TIM_Encoder_GetState
                0x00000000        0x8 build/stm32f1xx_hal_tim.o
 .text.HAL_TIM_IC_Init
                0x00000000       0x38 build/stm32f1xx_hal_tim.o
 .text.HAL_TIM_OnePulse_Init
                0x00000000       0x4c build/stm32f1xx_hal_tim.o
 .text.HAL_TIM_Encoder_Init
                0x00000000       0x9c build/stm32f1xx_hal_tim.o
 .text.TIM_TI1_SetConfig
                0x00000000       0x6c build/stm32f1xx_hal_tim.o
 .text.HAL_TIM_IC_ConfigChannel
                0x00000000       0xc0 build/stm32f1xx_hal_tim.o
 .text.HAL_TIM_OnePulse_ConfigChannel
                0x00000000       0xf4 build/stm32f1xx_hal_tim.o
 .text.HAL_TIM_OC_Start
                0x00000000       0x30 build/stm32f1xx_hal_tim.o
 .text.HAL_TIM_OC_Stop
                0x00000000       0x58 build/stm32f1xx_hal_tim.o
 .text.HAL_TIM_OC_Start_IT
                0x00000000       0x74 build/stm32f1xx_hal_tim.o
 .text.HAL_TIM_OC_Stop_IT
                0x00000000       0x9c build/stm32f1xx_hal_tim.o
 .text.HAL_TIM_OC_Start_DMA
                0x00000000      0x108 build/stm32f1xx_hal_tim.o
 .text.HAL_TIM_OC_Stop_DMA
                0x00000000       0xa0 build/stm32f1xx_hal_tim.o
 .text.HAL_TIM_PWM_Stop
                0x00000000       0x5c build/stm32f1xx_hal_tim.o
 .text.HAL_TIM_PWM_Start_IT
                0x00000000       0x74 build/stm32f1xx_hal_tim.o
 .text.HAL_TIM_PWM_Stop_IT
                0x00000000       0x9c build/stm32f1xx_hal_tim.o
 .text.HAL_TIM_PWM_Start_DMA
                0x00000000      0x108 build/stm32f1xx_hal_tim.o
 .text.HAL_TIM_PWM_Stop_DMA
                0x00000000       0xa0 build/stm32f1xx_hal_tim.o
 .text.HAL_TIM_IC_Start
                0x00000000       0x1c build/stm32f1xx_hal_tim.o
 .text.HAL_TIM_IC_Stop
                0x00000000       0x30 build/stm32f1xx_hal_tim.o
 .text.HAL_TIM_IC_Start_IT
                0x00000000       0x60 build/stm32f1xx_hal_tim.o
 .text.HAL_TIM_IC_Stop_IT
                0x00000000       0x74 build/stm32f1xx_hal_tim.o
 .text.HAL_TIM_IC_Start_DMA
                0x00000000       0xec build/stm32f1xx_hal_tim.o
 .text.HAL_TIM_IC_Stop_DMA
                0x00000000       0x78 build/stm32f1xx_hal_tim.o
 .text.HAL_TIM_OnePulse_Start
                0x00000000       0x30 build/stm32f1xx_hal_tim.o
 .text.HAL_TIM_OnePulse_Stop
                0x00000000       0x64 build/stm32f1xx_hal_tim.o
 .text.HAL_TIM_OnePulse_Start_IT
                0x00000000       0x44 build/stm32f1xx_hal_tim.o
 .text.HAL_TIM_OnePulse_Stop_IT
                0x00000000       0x78 build/stm32f1xx_hal_tim.o
 .text.HAL_TIM_Encoder_Start
                0x00000000       0x48 build/stm32f1xx_hal_tim.o
 .text.HAL_TIM_Encoder_Stop
                0x00000000       0x5c build/stm32f1xx_hal_tim.o
 .text.HAL_TIM_Encoder_Start_IT
                0x00000000       0x70 build/stm32f1xx_hal_tim.o
 .text.HAL_TIM_Encoder_Stop_IT
                0x00000000       0x88 build/stm32f1xx_hal_tim.o
 .text.HAL_TIM_Encoder_Start_DMA
                0x00000000      0x140 build/stm32f1xx_hal_tim.o
 .text.HAL_TIM_Encoder_Stop_DMA
                0x00000000       0x88 build/stm32f1xx_hal_tim.o
 .text          0x00000000        0x0 build/stm32f1xx_hal_tim_ex.o
 .data          0x00000000        0x0 build/stm32f1xx_hal_tim_ex.o
 .bss           0x00000000        0x0 build/stm32f1xx_hal_tim_ex.o
 .text.TIM_CCxNChannelCmd
                0x00000000       0x1c build/stm32f1xx_hal_tim_ex.o
 .text.HAL_TIMEx_HallSensor_MspInit
                0x00000000        0x4 build/stm32f1xx_hal_tim_ex.o
 .text.HAL_TIMEx_HallSensor_Init
                0x00000000       0xc4 build/stm32f1xx_hal_tim_ex.o
 .text.HAL_TIMEx_HallSensor_MspDeInit
                0x00000000        0x4 build/stm32f1xx_hal_tim_ex.o
 .text.HAL_TIMEx_HallSensor_DeInit
                0x00000000       0x3c build/stm32f1xx_hal_tim_ex.o
 .text.HAL_TIMEx_HallSensor_Start
                0x00000000       0x1c build/stm32f1xx_hal_tim_ex.o
 .text.HAL_TIMEx_HallSensor_Stop
                0x00000000       0x30 build/stm32f1xx_hal_tim_ex.o
 .text.HAL_TIMEx_HallSensor_Start_IT
                0x00000000       0x28 build/stm32f1xx_hal_tim_ex.o
 .text.HAL_TIMEx_HallSensor_Stop_IT
                0x00000000       0x3c build/stm32f1xx_hal_tim_ex.o
 .text.HAL_TIMEx_HallSensor_Start_DMA
                0x00000000       0x74 build/stm32f1xx_hal_tim_ex.o
 .text.HAL_TIMEx_HallSensor_Stop_DMA
                0x00000000       0x3c build/stm32f1xx_hal_tim_ex.o
 .text.HAL_TIMEx_OCN_Start
                0x00000000       0x24 build/stm32f1xx_hal_tim_ex.o
 .text.HAL_TIMEx_OCN_Stop
                0x00000000       0x4c build/stm32f1xx_hal_tim_ex.o
 .text.HAL_TIMEx_OCN_Start_IT
                0x00000000       0x5c build/stm32f1xx_hal_tim_ex.o
 .text.HAL_TIMEx_OCN_Stop_IT
                0x00000000       0x8c build/stm32f1xx_hal_tim_ex.o
 .text.HAL_TIMEx_OCN_Start_DMA
                0x00000000       0xd0 build/stm32f1xx_hal_tim_ex.o
 .text.HAL_TIMEx_OCN_Stop_DMA
                0x00000000       0x80 build/stm32f1xx_hal_tim_ex.o
 .text.HAL_TIMEx_PWMN_Start
                0x00000000       0x24 build/stm32f1xx_hal_tim_ex.o
 .text.HAL_TIMEx_PWMN_Stop
                0x00000000       0x4c build/stm32f1xx_hal_tim_ex.o
 .text.HAL_TIMEx_PWMN_Start_IT
                0x00000000       0x5c build/stm32f1xx_hal_tim_ex.o
 .text.HAL_TIMEx_PWMN_Stop_IT
                0x00000000       0x8c build/stm32f1xx_hal_tim_ex.o
 .text.HAL_TIMEx_PWMN_Start_DMA
                0x00000000       0xd0 build/stm32f1xx_hal_tim_ex.o
 .text.HAL_TIMEx_PWMN_Stop_DMA
                0x00000000       0x80 build/stm32f1xx_hal_tim_ex.o
 .text.HAL_TIMEx_OnePulseN_Start
                0x00000000       0x1c build/stm32f1xx_hal_tim_ex.o
 .text.HAL_TIMEx_OnePulseN_Stop
                0x00000000       0x4c build/stm32f1xx_hal_tim_ex.o
 .text.HAL_TIMEx_OnePulseN_Start_IT
                0x00000000       0x30 build/stm32f1xx_hal_tim_ex.o
 .text.HAL_TIMEx_OnePulseN_Stop_IT
                0x00000000       0x60 build/stm32f1xx_hal_tim_ex.o
 .text.HAL_TIMEx_ConfigCommutationEvent
                0x00000000       0x60 build/stm32f1xx_hal_tim_ex.o
 .text.HAL_TIMEx_ConfigCommutationEvent_IT
                0x00000000       0x68 build/stm32f1xx_hal_tim_ex.o
 .text.HAL_TIMEx_ConfigCommutationEvent_DMA
                0x00000000       0x7c build/stm32f1xx_hal_tim_ex.o
 .text.TIMEx_DMACommutationCplt
                0x00000000       0x10 build/stm32f1xx_hal_tim_ex.o
 .text.HAL_TIMEx_HallSensor_GetState
                0x00000000        0x8 build/stm32f1xx_hal_tim_ex.o
 .text          0x00000000        0x0 build/stm32f1xx_hal.o
 .data          0x00000000        0x0 build/stm32f1xx_hal.o
 .bss           0x00000000        0x0 build/stm32f1xx_hal.o
 .text.HAL_MspInit
                0x00000000        0x4 build/stm32f1xx_hal.o
 .text.HAL_MspDeInit
                0x00000000        0x4 build/stm32f1xx_hal.o
 .text.HAL_DeInit
                0x00000000       0x20 build/stm32f1xx_hal.o
 .text.HAL_InitTick
                0x00000000       0x4c build/stm32f1xx_hal.o
 .text.HAL_GetTickPrio
                0x00000000        0xc build/stm32f1xx_hal.o
 .text.HAL_SetTickFreq
                0x00000000       0x24 build/stm32f1xx_hal.o
 .text.HAL_GetTickFreq
                0x00000000        0xc build/stm32f1xx_hal.o
 .text.HAL_Delay
                0x00000000       0x28 build/stm32f1xx_hal.o
 .text.HAL_SuspendTick
                0x00000000       0x10 build/stm32f1xx_hal.o
 .text.HAL_ResumeTick
                0x00000000       0x10 build/stm32f1xx_hal.o
 .text.HAL_GetHalVersion
                0x00000000        0x8 build/stm32f1xx_hal.o
 .text.HAL_GetREVID
                0x00000000        0xc build/stm32f1xx_hal.o
 .text.HAL_GetDEVID
                0x00000000       0x10 build/stm32f1xx_hal.o
 .text.HAL_DBGMCU_EnableDBGSleepMode
                0x00000000       0x10 build/stm32f1xx_hal.o
 .text.HAL_DBGMCU_DisableDBGSleepMode
                0x00000000       0x10 build/stm32f1xx_hal.o
 .text.HAL_DBGMCU_EnableDBGStopMode
                0x00000000       0x10 build/stm32f1xx_hal.o
 .text.HAL_DBGMCU_DisableDBGStopMode
                0x00000000       0x10 build/stm32f1xx_hal.o
 .text.HAL_DBGMCU_EnableDBGStandbyMode
                0x00000000       0x10 build/stm32f1xx_hal.o
 .text.HAL_DBGMCU_DisableDBGStandbyMode
                0x00000000       0x10 build/stm32f1xx_hal.o
 .text.HAL_GetUID
                0x00000000       0x20 build/stm32f1xx_hal.o
 .data.uwTickPrio
                0x00000000        0x4 build/stm32f1xx_hal.o
 .text          0x00000000        0x0 build/stm32f1xx_hal_rcc.o
 .data          0x00000000        0x0 build/stm32f1xx_hal_rcc.o
 .bss           0x00000000        0x0 build/stm32f1xx_hal_rcc.o
 .text.HAL_RCC_DeInit
                0x00000000       0xf8 build/stm32f1xx_hal_rcc.o
 .text.HAL_RCC_MCOConfig
                0x00000000       0x4c build/stm32f1xx_hal_rcc.o
 .text.HAL_RCC_EnableCSS
                0x00000000        0xc build/stm32f1xx_hal_rcc.o
 .text.HAL_RCC_DisableCSS
                0x00000000        0xc build/stm32f1xx_hal_rcc.o
 .text.HAL_RCC_GetOscConfig
                0x00000000       0xb4 build/stm32f1xx_hal_rcc.o
 .text.HAL_RCC_CSSCallback
                0x00000000        0x4 build/stm32f1xx_hal_rcc.o
 .text.HAL_RCC_NMI_IRQHandler
                0x00000000       0x20 build/stm32f1xx_hal_rcc.o
 .text          0x00000000        0x0 build/stm32f1xx_hal_rcc_ex.o
 .data          0x00000000        0x0 build/stm32f1xx_hal_rcc_ex.o
 .bss           0x00000000        0x0 build/stm32f1xx_hal_rcc_ex.o
 .text.HAL_RCCEx_GetPeriphCLKConfig
                0x00000000       0x2c build/stm32f1xx_hal_rcc_ex.o
 .text          0x00000000        0x0 build/stm32f1xx_hal_gpio.o
 .data          0x00000000        0x0 build/stm32f1xx_hal_gpio.o
 .bss           0x00000000        0x0 build/stm32f1xx_hal_gpio.o
 .text.HAL_GPIO_DeInit
                0x00000000       0xdc build/stm32f1xx_hal_gpio.o
 .text.HAL_GPIO_LockPin
                0x00000000       0x30 build/stm32f1xx_hal_gpio.o
 .text.HAL_GPIO_EXTI_Callback
                0x00000000        0x4 build/stm32f1xx_hal_gpio.o
 .text.HAL_GPIO_EXTI_IRQHandler
                0x00000000       0x18 build/stm32f1xx_hal_gpio.o
 .text          0x00000000        0x0 build/stm32f1xx_hal_dma.o
 .data          0x00000000        0x0 build/stm32f1xx_hal_dma.o
 .bss           0x00000000        0x0 build/stm32f1xx_hal_dma.o
 .text.HAL_DMA_DeInit
                0x00000000       0x68 build/stm32f1xx_hal_dma.o
 .text.HAL_DMA_Start
                0x00000000       0x50 build/stm32f1xx_hal_dma.o
 .text.HAL_DMA_Abort
                0x00000000       0x30 build/stm32f1xx_hal_dma.o
 .text.HAL_DMA_PollForTransfer
                0x00000000      0x230 build/stm32f1xx_hal_dma.o
 .text.HAL_DMA_RegisterCallback
                0x00000000       0x50 build/stm32f1xx_hal_dma.o
 .text.HAL_DMA_UnRegisterCallback
                0x00000000       0x5c build/stm32f1xx_hal_dma.o
 .text.HAL_DMA_GetState
                0x00000000        0x8 build/stm32f1xx_hal_dma.o
 .text.HAL_DMA_GetError
                0x00000000        0x4 build/stm32f1xx_hal_dma.o
 .text          0x00000000        0x0 build/stm32f1xx_hal_cortex.o
 .data          0x00000000        0x0 build/stm32f1xx_hal_cortex.o
 .bss           0x00000000        0x0 build/stm32f1xx_hal_cortex.o
 .text.HAL_NVIC_DisableIRQ
                0x00000000       0x1c build/stm32f1xx_hal_cortex.o
 .text.HAL_NVIC_SystemReset
                0x00000000       0x24 build/stm32f1xx_hal_cortex.o
 .text.HAL_SYSTICK_Config
                0x00000000       0x2c build/stm32f1xx_hal_cortex.o
 .text.HAL_NVIC_GetPriorityGrouping
                0x00000000       0x10 build/stm32f1xx_hal_cortex.o
 .text.HAL_NVIC_GetPriority
                0x00000000       0x5c build/stm32f1xx_hal_cortex.o
 .text.HAL_NVIC_SetPendingIRQ
                0x00000000       0x1c build/stm32f1xx_hal_cortex.o
 .text.HAL_NVIC_GetPendingIRQ
                0x00000000       0x1c build/stm32f1xx_hal_cortex.o
 .text.HAL_NVIC_ClearPendingIRQ
                0x00000000       0x1c build/stm32f1xx_hal_cortex.o
 .text.HAL_NVIC_GetActive
                0x00000000       0x1c build/stm32f1xx_hal_cortex.o
 .text.HAL_SYSTICK_CLKSourceConfig
                0x00000000       0x20 build/stm32f1xx_hal_cortex.o
 .text.HAL_SYSTICK_Callback
                0x00000000        0x4 build/stm32f1xx_hal_cortex.o
 .text.HAL_SYSTICK_IRQHandler
                0x00000000        0x8 build/stm32f1xx_hal_cortex.o
 .text          0x00000000        0x0 build/stm32f1xx_hal_pwr.o
 .data          0x00000000        0x0 build/stm32f1xx_hal_pwr.o
 .bss           0x00000000        0x0 build/stm32f1xx_hal_pwr.o
 .text.PWR_OverloadWfe
                0x00000000        0x8 build/stm32f1xx_hal_pwr.o
 .text.HAL_PWR_DeInit
                0x00000000       0x18 build/stm32f1xx_hal_pwr.o
 .text.HAL_PWR_EnableBkUpAccess
                0x00000000        0xc build/stm32f1xx_hal_pwr.o
 .text.HAL_PWR_DisableBkUpAccess
                0x00000000        0xc build/stm32f1xx_hal_pwr.o
 .text.HAL_PWR_ConfigPVD
                0x00000000       0x84 build/stm32f1xx_hal_pwr.o
 .text.HAL_PWR_EnablePVD
                0x00000000        0xc build/stm32f1xx_hal_pwr.o
 .text.HAL_PWR_DisablePVD
                0x00000000        0xc build/stm32f1xx_hal_pwr.o
 .text.HAL_PWR_EnableWakeUpPin
                0x00000000       0x18 build/stm32f1xx_hal_pwr.o
 .text.HAL_PWR_DisableWakeUpPin
                0x00000000       0x18 build/stm32f1xx_hal_pwr.o
 .text.HAL_PWR_EnterSLEEPMode
                0x00000000       0x20 build/stm32f1xx_hal_pwr.o
 .text.HAL_PWR_EnterSTOPMode
                0x00000000       0x48 build/stm32f1xx_hal_pwr.o
 .text.HAL_PWR_EnterSTANDBYMode
                0x00000000       0x20 build/stm32f1xx_hal_pwr.o
 .text.HAL_PWR_EnableSleepOnExit
                0x00000000       0x10 build/stm32f1xx_hal_pwr.o
 .text.HAL_PWR_DisableSleepOnExit
                0x00000000       0x10 build/stm32f1xx_hal_pwr.o
 .text.HAL_PWR_EnableSEVOnPend
                0x00000000       0x10 build/stm32f1xx_hal_pwr.o
 .text.HAL_PWR_DisableSEVOnPend
                0x00000000       0x10 build/stm32f1xx_hal_pwr.o
 .text.HAL_PWR_PVDCallback
                0x00000000        0x4 build/stm32f1xx_hal_pwr.o
 .text.HAL_PWR_PVD_IRQHandler
                0x00000000       0x20 build/stm32f1xx_hal_pwr.o
 .debug_info    0x00000000      0x79f build/stm32f1xx_hal_pwr.o
 .debug_abbrev  0x00000000      0x1fe build/stm32f1xx_hal_pwr.o
 .debug_loc     0x00000000       0xea build/stm32f1xx_hal_pwr.o
 .debug_aranges
                0x00000000       0xa8 build/stm32f1xx_hal_pwr.o
 .debug_ranges  0x00000000       0x98 build/stm32f1xx_hal_pwr.o
 .debug_line    0x00000000      0x346 build/stm32f1xx_hal_pwr.o
 .debug_str     0x00000000      0x4b7 build/stm32f1xx_hal_pwr.o
 .comment       0x00000000       0x6f build/stm32f1xx_hal_pwr.o
 .debug_frame   0x00000000      0x148 build/stm32f1xx_hal_pwr.o
 .ARM.attributes
                0x00000000       0x33 build/stm32f1xx_hal_pwr.o
 .text          0x00000000        0x0 build/stm32f1xx_hal_flash.o
 .data          0x00000000        0x0 build/stm32f1xx_hal_flash.o
 .bss           0x00000000        0x0 build/stm32f1xx_hal_flash.o
 .text.FLASH_Program_HalfWord
                0x00000000       0x1c build/stm32f1xx_hal_flash.o
 .text.FLASH_SetErrorCode
                0x00000000       0x74 build/stm32f1xx_hal_flash.o
 .text.HAL_FLASH_Program_IT
                0x00000000       0x64 build/stm32f1xx_hal_flash.o
 .text.HAL_FLASH_EndOfOperationCallback
                0x00000000        0x4 build/stm32f1xx_hal_flash.o
 .text.HAL_FLASH_OperationErrorCallback
                0x00000000        0x4 build/stm32f1xx_hal_flash.o
 .text.HAL_FLASH_IRQHandler
                0x00000000      0x15c build/stm32f1xx_hal_flash.o
 .text.HAL_FLASH_Unlock
                0x00000000       0x34 build/stm32f1xx_hal_flash.o
 .text.HAL_FLASH_Lock
                0x00000000       0x14 build/stm32f1xx_hal_flash.o
 .text.HAL_FLASH_OB_Unlock
                0x00000000       0x28 build/stm32f1xx_hal_flash.o
 .text.HAL_FLASH_OB_Lock
                0x00000000       0x14 build/stm32f1xx_hal_flash.o
 .text.HAL_FLASH_OB_Launch
                0x00000000        0x8 build/stm32f1xx_hal_flash.o
 .text.HAL_FLASH_GetError
                0x00000000        0xc build/stm32f1xx_hal_flash.o
 .text.FLASH_WaitForLastOperation
                0x00000000       0x70 build/stm32f1xx_hal_flash.o
 .text.HAL_FLASH_Program
                0x00000000       0xa0 build/stm32f1xx_hal_flash.o
 .debug_info    0x00000000      0x6b1 build/stm32f1xx_hal_flash.o
 .debug_abbrev  0x00000000      0x23e build/stm32f1xx_hal_flash.o
 .debug_loc     0x00000000      0x3c6 build/stm32f1xx_hal_flash.o
 .debug_aranges
                0x00000000       0x88 build/stm32f1xx_hal_flash.o
 .debug_ranges  0x00000000       0x78 build/stm32f1xx_hal_flash.o
 .debug_line    0x00000000      0x3f1 build/stm32f1xx_hal_flash.o
 .debug_str     0x00000000      0x539 build/stm32f1xx_hal_flash.o
 .comment       0x00000000       0x6f build/stm32f1xx_hal_flash.o
 .debug_frame   0x00000000      0x150 build/stm32f1xx_hal_flash.o
 .ARM.attributes
                0x00000000       0x33 build/stm32f1xx_hal_flash.o
 COMMON         0x00000000       0x20 build/stm32f1xx_hal_flash.o
 .text          0x00000000        0x0 build/stm32f1xx_hal_flash_ex.o
 .data          0x00000000        0x0 build/stm32f1xx_hal_flash_ex.o
 .bss           0x00000000        0x0 build/stm32f1xx_hal_flash_ex.o
 .text.FLASH_MassErase
                0x00000000       0x24 build/stm32f1xx_hal_flash_ex.o
 .text.FLASH_OB_GetWRP
                0x00000000        0xc build/stm32f1xx_hal_flash_ex.o
 .text.FLASH_OB_GetRDP
                0x00000000       0x18 build/stm32f1xx_hal_flash_ex.o
 .text.FLASH_OB_GetUser
                0x00000000       0x10 build/stm32f1xx_hal_flash_ex.o
 .text.FLASH_OB_RDP_LevelConfig
                0x00000000       0x6c build/stm32f1xx_hal_flash_ex.o
 .text.FLASH_OB_UserConfig
                0x00000000       0x4c build/stm32f1xx_hal_flash_ex.o
 .text.FLASH_OB_ProgramData
                0x00000000       0x44 build/stm32f1xx_hal_flash_ex.o
 .text.HAL_FLASHEx_OBErase
                0x00000000       0x54 build/stm32f1xx_hal_flash_ex.o
 .text.FLASH_OB_EnableWRP
                0x00000000       0xb8 build/stm32f1xx_hal_flash_ex.o
 .text.FLASH_OB_DisableWRP
                0x00000000       0xc0 build/stm32f1xx_hal_flash_ex.o
 .text.HAL_FLASHEx_OBProgram
                0x00000000       0xa4 build/stm32f1xx_hal_flash_ex.o
 .text.HAL_FLASHEx_OBGetConfig
                0x00000000       0x1c build/stm32f1xx_hal_flash_ex.o
 .text.HAL_FLASHEx_OBGetUserData
                0x00000000       0x24 build/stm32f1xx_hal_flash_ex.o
 .text.FLASH_PageErase
                0x00000000       0x24 build/stm32f1xx_hal_flash_ex.o
 .text.HAL_FLASHEx_Erase
                0x00000000       0xa4 build/stm32f1xx_hal_flash_ex.o
 .text.HAL_FLASHEx_Erase_IT
                0x00000000       0x60 build/stm32f1xx_hal_flash_ex.o
 .debug_info    0x00000000      0xacf build/stm32f1xx_hal_flash_ex.o
 .debug_abbrev  0x00000000      0x25e build/stm32f1xx_hal_flash_ex.o
 .debug_loc     0x00000000      0x82c build/stm32f1xx_hal_flash_ex.o
 .debug_aranges
                0x00000000       0x98 build/stm32f1xx_hal_flash_ex.o
 .debug_ranges  0x00000000       0x88 build/stm32f1xx_hal_flash_ex.o
 .debug_line    0x00000000      0x422 build/stm32f1xx_hal_flash_ex.o
 .debug_str     0x00000000      0x64f build/stm32f1xx_hal_flash_ex.o
 .comment       0x00000000       0x6f build/stm32f1xx_hal_flash_ex.o
 .debug_frame   0x00000000      0x1c8 build/stm32f1xx_hal_flash_ex.o
 .ARM.attributes
                0x00000000       0x33 build/stm32f1xx_hal_flash_ex.o
 .text          0x00000000        0x0 build/system_stm32f1xx.o
 .data          0x00000000        0x0 build/system_stm32f1xx.o
 .bss           0x00000000        0x0 build/system_stm32f1xx.o
 .text.SystemCoreClockUpdate
                0x00000000       0x94 build/system_stm32f1xx.o
 .text          0x00000000        0x0 build/freertos.o
 .data          0x00000000        0x0 build/freertos.o
 .bss           0x00000000        0x0 build/freertos.o
 .text          0x00000000        0x0 build/stm32f1xx_hal_timebase_tim.o
 .data          0x00000000        0x0 build/stm32f1xx_hal_timebase_tim.o
 .bss           0x00000000        0x0 build/stm32f1xx_hal_timebase_tim.o
 .text.HAL_SuspendTick
                0x00000000       0x14 build/stm32f1xx_hal_timebase_tim.o
 .text.HAL_ResumeTick
                0x00000000       0x14 build/stm32f1xx_hal_timebase_tim.o
 .text          0x00000000        0x0 build/stm32f1xx_hal_adc.o
 .data          0x00000000        0x0 build/stm32f1xx_hal_adc.o
 .bss           0x00000000        0x0 build/stm32f1xx_hal_adc.o
 .text.HAL_ADC_MspInit
                0x00000000        0x4 build/stm32f1xx_hal_adc.o
 .text.HAL_ADC_MspDeInit
                0x00000000        0x4 build/stm32f1xx_hal_adc.o
 .text.HAL_ADC_PollForConversion
                0x00000000      0x174 build/stm32f1xx_hal_adc.o
 .text.HAL_ADC_PollForEvent
                0x00000000       0x50 build/stm32f1xx_hal_adc.o
 .text.HAL_ADC_GetValue
                0x00000000        0x8 build/stm32f1xx_hal_adc.o
 .text.HAL_ADC_ConvCpltCallback
                0x00000000        0x4 build/stm32f1xx_hal_adc.o
 .text.HAL_ADC_ConvHalfCpltCallback
                0x00000000        0x4 build/stm32f1xx_hal_adc.o
 .text.HAL_ADC_LevelOutOfWindowCallback
                0x00000000        0x4 build/stm32f1xx_hal_adc.o
 .text.HAL_ADC_IRQHandler
                0x00000000      0x104 build/stm32f1xx_hal_adc.o
 .text.HAL_ADC_AnalogWDGConfig
                0x00000000       0x60 build/stm32f1xx_hal_adc.o
 .text.HAL_ADC_GetState
                0x00000000        0x4 build/stm32f1xx_hal_adc.o
 .text.HAL_ADC_GetError
                0x00000000        0x4 build/stm32f1xx_hal_adc.o
 .text.HAL_ADC_Start
                0x00000000       0xf8 build/stm32f1xx_hal_adc.o
 .text.HAL_ADC_Start_IT
                0x00000000      0x104 build/stm32f1xx_hal_adc.o
 .text.HAL_ADC_DeInit
                0x00000000       0xfc build/stm32f1xx_hal_adc.o
 .text.HAL_ADC_Stop
                0x00000000       0x38 build/stm32f1xx_hal_adc.o
 .text.HAL_ADC_Stop_IT
                0x00000000       0x44 build/stm32f1xx_hal_adc.o
 .text.HAL_ADC_Stop_DMA
                0x00000000       0x58 build/stm32f1xx_hal_adc.o
 .text          0x00000000        0x0 build/stm32f1xx_hal_adc_ex.o
 .data          0x00000000        0x0 build/stm32f1xx_hal_adc_ex.o
 .bss           0x00000000        0x0 build/stm32f1xx_hal_adc_ex.o
 .text.HAL_ADCEx_InjectedStart
                0x00000000       0xc0 build/stm32f1xx_hal_adc_ex.o
 .text.HAL_ADCEx_InjectedStop
                0x00000000       0x58 build/stm32f1xx_hal_adc_ex.o
 .text.HAL_ADCEx_InjectedPollForConversion
                0x00000000      0x16c build/stm32f1xx_hal_adc_ex.o
 .text.HAL_ADCEx_InjectedStart_IT
                0x00000000       0xc8 build/stm32f1xx_hal_adc_ex.o
 .text.HAL_ADCEx_InjectedStop_IT
                0x00000000       0x60 build/stm32f1xx_hal_adc_ex.o
 .text.HAL_ADCEx_MultiModeStart_DMA
                0x00000000       0xf4 build/stm32f1xx_hal_adc_ex.o
 .text.HAL_ADCEx_MultiModeStop_DMA
                0x00000000       0x80 build/stm32f1xx_hal_adc_ex.o
 .text.HAL_ADCEx_InjectedGetValue
                0x00000000       0x28 build/stm32f1xx_hal_adc_ex.o
 .text.HAL_ADCEx_MultiModeGetValue
                0x00000000       0x20 build/stm32f1xx_hal_adc_ex.o
 .text.HAL_ADCEx_InjectedConvCpltCallback
                0x00000000        0x4 build/stm32f1xx_hal_adc_ex.o
 .text.HAL_ADCEx_InjectedConfigChannel
                0x00000000      0x210 build/stm32f1xx_hal_adc_ex.o
 .text.HAL_ADCEx_MultiModeConfigChannel
                0x00000000       0x68 build/stm32f1xx_hal_adc_ex.o
 .text          0x00000000        0x0 build/stm32f1xx_hal_can.o
 .data          0x00000000        0x0 build/stm32f1xx_hal_can.o
 .bss           0x00000000        0x0 build/stm32f1xx_hal_can.o
 .text.HAL_CAN_MspInit
                0x00000000        0x4 build/stm32f1xx_hal_can.o
 .text.HAL_CAN_MspDeInit
                0x00000000        0x4 build/stm32f1xx_hal_can.o
 .text.HAL_CAN_Stop
                0x00000000       0x64 build/stm32f1xx_hal_can.o
 .text.HAL_CAN_DeInit
                0x00000000       0x28 build/stm32f1xx_hal_can.o
 .text.HAL_CAN_RequestSleep
                0x00000000       0x28 build/stm32f1xx_hal_can.o
 .text.HAL_CAN_WakeUp
                0x00000000       0x58 build/stm32f1xx_hal_can.o
 .text.HAL_CAN_IsSleepActive
                0x00000000       0x24 build/stm32f1xx_hal_can.o
 .text.HAL_CAN_GetTxMailboxesFreeLevel
                0x00000000       0x38 build/stm32f1xx_hal_can.o
 .text.HAL_CAN_IsTxMessagePending
                0x00000000       0x24 build/stm32f1xx_hal_can.o
 .text.HAL_CAN_GetTxTimestamp
                0x00000000       0x28 build/stm32f1xx_hal_can.o
 .text.HAL_CAN_GetRxFifoFillLevel
                0x00000000       0x28 build/stm32f1xx_hal_can.o
 .text.HAL_CAN_DeactivateNotification
                0x00000000       0x28 build/stm32f1xx_hal_can.o
 .text.HAL_CAN_TxMailbox0CompleteCallback
                0x00000000        0x4 build/stm32f1xx_hal_can.o
 .text.HAL_CAN_TxMailbox0AbortCallback
                0x00000000        0x4 build/stm32f1xx_hal_can.o
 .text.HAL_CAN_RxFifo0MsgPendingCallback
                0x00000000        0x4 build/stm32f1xx_hal_can.o
 .text.HAL_CAN_RxFifo1MsgPendingCallback
                0x00000000        0x4 build/stm32f1xx_hal_can.o
 .text.HAL_CAN_ErrorCallback
                0x00000000        0x4 build/stm32f1xx_hal_can.o
 .text.HAL_CAN_GetState
                0x00000000       0x2c build/stm32f1xx_hal_can.o
 .text.HAL_CAN_GetError
                0x00000000        0x4 build/stm32f1xx_hal_can.o
 .text.HAL_CAN_ResetError
                0x00000000       0x20 build/stm32f1xx_hal_can.o
 .text          0x00000000        0x0 build/stm32f1xx_hal_uart.o
 .data          0x00000000        0x0 build/stm32f1xx_hal_uart.o
 .bss           0x00000000        0x0 build/stm32f1xx_hal_uart.o
 .text.UART_WaitOnFlagUntilTimeout
                0x00000000       0x68 build/stm32f1xx_hal_uart.o
 .text.HAL_UART_MspInit
                0x00000000        0x4 build/stm32f1xx_hal_uart.o
 .text.HAL_HalfDuplex_Init
                0x00000000       0x70 build/stm32f1xx_hal_uart.o
 .text.HAL_LIN_Init
                0x00000000       0x7c build/stm32f1xx_hal_uart.o
 .text.HAL_MultiProcessor_Init
                0x00000000       0x84 build/stm32f1xx_hal_uart.o
 .text.HAL_UART_MspDeInit
                0x00000000        0x4 build/stm32f1xx_hal_uart.o
 .text.HAL_UART_DeInit
                0x00000000       0x28 build/stm32f1xx_hal_uart.o
 .text.HAL_UART_Transmit
                0x00000000       0xe4 build/stm32f1xx_hal_uart.o
 .text.HAL_UART_Receive
                0x00000000       0xe8 build/stm32f1xx_hal_uart.o
 .text.HAL_UART_DMAPause
                0x00000000       0x68 build/stm32f1xx_hal_uart.o
 .text.HAL_UART_DMAResume
                0x00000000       0x78 build/stm32f1xx_hal_uart.o
 .text.HAL_UART_DMAStop
                0x00000000       0x5c build/stm32f1xx_hal_uart.o
 .text.HAL_UART_Abort
                0x00000000       0x6c build/stm32f1xx_hal_uart.o
 .text.HAL_UART_AbortTransmit
                0x00000000       0x3c build/stm32f1xx_hal_uart.o
 .text.HAL_UART_AbortReceive
                0x00000000       0x44 build/stm32f1xx_hal_uart.o
 .text.HAL_UART_TxCpltCallback
                0x00000000        0x4 build/stm32f1xx_hal_uart.o
 .text.HAL_UART_RxCpltCallback
                0x00000000        0x4 build/stm32f1xx_hal_uart.o
 .text.HAL_UART_RxHalfCpltCallback
                0x00000000        0x4 build/stm32f1xx_hal_uart.o
 .text.HAL_UART_ErrorCallback
                0x00000000        0x4 build/stm32f1xx_hal_uart.o
 .text.HAL_UART_AbortCpltCallback
                0x00000000        0x4 build/stm32f1xx_hal_uart.o
 .text.HAL_UART_Abort_IT
                0x00000000       0xc8 build/stm32f1xx_hal_uart.o
 .text.UART_DMARxAbortCallback
                0x00000000       0x2c build/stm32f1xx_hal_uart.o
 .text.UART_DMATxAbortCallback
                0x00000000       0x2c build/stm32f1xx_hal_uart.o
 .text.HAL_UART_AbortTransmitCpltCallback
                0x00000000        0x4 build/stm32f1xx_hal_uart.o
 .text.HAL_UART_AbortTransmit_IT
                0x00000000       0x60 build/stm32f1xx_hal_uart.o
 .text.UART_DMATxOnlyAbortCallback
                0x00000000       0x14 build/stm32f1xx_hal_uart.o
 .text.HAL_UART_AbortReceiveCpltCallback
                0x00000000        0x4 build/stm32f1xx_hal_uart.o
 .text.HAL_UART_AbortReceive_IT
                0x00000000       0x68 build/stm32f1xx_hal_uart.o
 .text.UART_DMARxOnlyAbortCallback
                0x00000000       0x14 build/stm32f1xx_hal_uart.o
 .text.HAL_LIN_SendBreak
                0x00000000       0x34 build/stm32f1xx_hal_uart.o
 .text.HAL_MultiProcessor_EnterMuteMode
                0x00000000       0x34 build/stm32f1xx_hal_uart.o
 .text.HAL_MultiProcessor_ExitMuteMode
                0x00000000       0x34 build/stm32f1xx_hal_uart.o
 .text.HAL_HalfDuplex_EnableTransmitter
                0x00000000       0x38 build/stm32f1xx_hal_uart.o
 .text.HAL_HalfDuplex_EnableReceiver
                0x00000000       0x38 build/stm32f1xx_hal_uart.o
 .text.HAL_UART_GetState
                0x00000000        0xc build/stm32f1xx_hal_uart.o
 .text.HAL_UART_GetError
                0x00000000        0x4 build/stm32f1xx_hal_uart.o
 .text          0x00000000        0x0 build/croutine.o
 .data          0x00000000        0x0 build/croutine.o
 .bss           0x00000000        0x0 build/croutine.o
 .debug_info    0x00000000       0x79 build/croutine.o
 .debug_abbrev  0x00000000       0x26 build/croutine.o
 .debug_aranges
                0x00000000       0x18 build/croutine.o
 .debug_line    0x00000000       0x1d build/croutine.o
 .debug_str     0x00000000      0x18c build/croutine.o
 .comment       0x00000000       0x6f build/croutine.o
 .ARM.attributes
                0x00000000       0x33 build/croutine.o
 .text          0x00000000        0x0 build/event_groups.o
 .data          0x00000000        0x0 build/event_groups.o
 .bss           0x00000000        0x0 build/event_groups.o
 .text.prvTestWaitCondition
                0x00000000       0x1c build/event_groups.o
 .text.xEventGroupCreateStatic
                0x00000000       0x2c build/event_groups.o
 .text.xEventGroupCreate
                0x00000000       0x1c build/event_groups.o
 .text.xEventGroupWaitBits
                0x00000000      0x114 build/event_groups.o
 .text.xEventGroupClearBits
                0x00000000       0x48 build/event_groups.o
 .text.xEventGroupGetBitsFromISR
                0x00000000       0x1c build/event_groups.o
 .text.xEventGroupSetBits
                0x00000000       0x9c build/event_groups.o
 .text.xEventGroupSync
                0x00000000       0xe0 build/event_groups.o
 .text.vEventGroupDelete
                0x00000000       0x44 build/event_groups.o
 .text.vEventGroupSetBitsCallback
                0x00000000        0x8 build/event_groups.o
 .text.vEventGroupClearBitsCallback
                0x00000000        0x8 build/event_groups.o
 .debug_info    0x00000000      0xc8e build/event_groups.o
 .debug_abbrev  0x00000000      0x29c build/event_groups.o
 .debug_loc     0x00000000      0x888 build/event_groups.o
 .debug_aranges
                0x00000000       0x70 build/event_groups.o
 .debug_ranges  0x00000000       0x78 build/event_groups.o
 .debug_line    0x00000000      0x3fc build/event_groups.o
 .debug_str     0x00000000      0x72f build/event_groups.o
 .comment       0x00000000       0x6f build/event_groups.o
 .debug_frame   0x00000000      0x15c build/event_groups.o
 .ARM.attributes
                0x00000000       0x33 build/event_groups.o
 .text          0x00000000        0x0 build/list.o
 .data          0x00000000        0x0 build/list.o
 .bss           0x00000000        0x0 build/list.o
 .text          0x00000000        0x0 build/queue.o
 .data          0x00000000        0x0 build/queue.o
 .bss           0x00000000        0x0 build/queue.o
 .text.prvInitialiseMutex
                0x00000000       0x18 build/queue.o
 .text.xQueueCreateMutex
                0x00000000       0x18 build/queue.o
 .text.xQueueCreateMutexStatic
                0x00000000       0x20 build/queue.o
 .text.xQueueReceiveFromISR
                0x00000000       0xb8 build/queue.o
 .text.xQueuePeekFromISR
                0x00000000       0x88 build/queue.o
 .text.uxQueueMessagesWaiting
                0x00000000       0x28 build/queue.o
 .text.uxQueueSpacesAvailable
                0x00000000       0x2c build/queue.o
 .text.uxQueueMessagesWaitingFromISR
                0x00000000       0x18 build/queue.o
 .text.xQueueIsQueueEmptyFromISR
                0x00000000       0x20 build/queue.o
 .text.xQueueIsQueueFullFromISR
                0x00000000       0x24 build/queue.o
 .text.pcQueueGetName
                0x00000000       0x28 build/queue.o
 .text.vQueueUnregisterQueue
                0x00000000       0x2c build/queue.o
 .text.vQueueDelete
                0x00000000       0x2c build/queue.o
 .text          0x00000000        0x0 build/tasks.o
 .data          0x00000000        0x0 build/tasks.o
 .bss           0x00000000        0x0 build/tasks.o
 .text.prvTaskIsTaskSuspended
                0x00000000       0x4c build/tasks.o
 .text.prvSearchForNameWithinSingleList
                0x00000000       0x5c build/tasks.o
 .text.vTaskDelete
                0x00000000       0xdc build/tasks.o
 .text.uxTaskPriorityGet
                0x00000000       0x1c build/tasks.o
 .text.uxTaskPriorityGetFromISR
                0x00000000       0x30 build/tasks.o
 .text.vTaskResume
                0x00000000       0x88 build/tasks.o
 .text.xTaskResumeFromISR
                0x00000000       0xa8 build/tasks.o
 .text.vTaskEndScheduler
                0x00000000       0x24 build/tasks.o
 .text.xTaskGetTickCountFromISR
                0x00000000       0x10 build/tasks.o
 .text.uxTaskGetNumberOfTasks
                0x00000000        0xc build/tasks.o
 .text.pcTaskGetName
                0x00000000       0x28 build/tasks.o
 .text.xTaskGetHandle
                0x00000000       0x90 build/tasks.o
 .text.vTaskPlaceOnUnorderedEventList
                0x00000000       0x5c build/tasks.o
 .text.xTaskRemoveFromUnorderedEventList
                0x00000000       0x90 build/tasks.o
 .text.uxTaskResetEventItemValue
                0x00000000       0x18 build/tasks.o
 .text.ulTaskNotifyTake
                0x00000000       0x74 build/tasks.o
 .text.vTaskNotifyGiveFromISR
                0x00000000       0xd0 build/tasks.o
 .text.xTaskNotifyStateClear
                0x00000000       0x30 build/tasks.o
 .text          0x00000000        0x0 build/timers.o
 .data          0x00000000        0x0 build/timers.o
 .bss           0x00000000        0x0 build/timers.o
 .text.xTimerCreateStatic
                0x00000000       0x50 build/timers.o
 .text.xTimerGetTimerDaemonTaskHandle
                0x00000000       0x20 build/timers.o
 .text.xTimerGetPeriod
                0x00000000       0x18 build/timers.o
 .text.xTimerGetExpiryTime
                0x00000000       0x18 build/timers.o
 .text.pcTimerGetName
                0x00000000       0x18 build/timers.o
 .text.xTimerIsTimerActive
                0x00000000       0x2c build/timers.o
 .text.pvTimerGetTimerID
                0x00000000       0x28 build/timers.o
 .text.vTimerSetTimerID
                0x00000000       0x28 build/timers.o
 .text          0x00000000        0x0 build/cmsis_os.o
 .data          0x00000000        0x0 build/cmsis_os.o
 .bss           0x00000000        0x0 build/cmsis_os.o
 .text.makeCmsisPriority
                0x00000000       0x10 build/cmsis_os.o
 .text.inHandlerMode
                0x00000000        0xc build/cmsis_os.o
 .text.osKernelRunning
                0x00000000       0x14 build/cmsis_os.o
 .text.osKernelSysTick
                0x00000000       0x14 build/cmsis_os.o
 .text.osThreadGetId
                0x00000000        0x8 build/cmsis_os.o
 .text.osThreadTerminate
                0x00000000        0xc build/cmsis_os.o
 .text.osThreadYield
                0x00000000       0x18 build/cmsis_os.o
 .text.osThreadSetPriority
                0x00000000       0x18 build/cmsis_os.o
 .text.osThreadGetPriority
                0x00000000       0x24 build/cmsis_os.o
 .text.osTimerCreate
                0x00000000       0x44 build/cmsis_os.o
 .text.osTimerStart
                0x00000000       0x6c build/cmsis_os.o
 .text.osTimerStop
                0x00000000       0x64 build/cmsis_os.o
 .text.osTimerDelete
                0x00000000       0x30 build/cmsis_os.o
 .text.osSignalSet
                0x00000000       0x64 build/cmsis_os.o
 .text.osSignalWait
                0x00000000       0x64 build/cmsis_os.o
 .text.osMutexCreate
                0x00000000       0x18 build/cmsis_os.o
 .text.osMutexWait
                0x00000000       0x70 build/cmsis_os.o
 .text.osMutexRelease
                0x00000000       0x5c build/cmsis_os.o
 .text.osMutexDelete
                0x00000000       0x18 build/cmsis_os.o
 .text.osSemaphoreWait
                0x00000000       0x6c build/cmsis_os.o
 .text.osSemaphoreRelease
                0x00000000       0x5c build/cmsis_os.o
 .text.osSemaphoreDelete
                0x00000000       0x18 build/cmsis_os.o
 .text.osPoolCreate
                0x00000000       0x6c build/cmsis_os.o
 .text.osPoolAlloc
                0x00000000       0x6c build/cmsis_os.o
 .text.osPoolCAlloc
                0x00000000       0x14 build/cmsis_os.o
 .text.osPoolFree
                0x00000000       0x40 build/cmsis_os.o
 .text.osMessageCreate
                0x00000000       0x28 build/cmsis_os.o
 .text.osMessagePut
                0x00000000       0x68 build/cmsis_os.o
 .text.osMessageGet
                0x00000000       0x9c build/cmsis_os.o
 .text.osMailCreate
                0x00000000       0x60 build/cmsis_os.o
 .text.osMailAlloc
                0x00000000       0x10 build/cmsis_os.o
 .text.osMailCAlloc
                0x00000000       0x24 build/cmsis_os.o
 .text.osMailPut
                0x00000000       0x68 build/cmsis_os.o
 .text.osMailGet
                0x00000000       0x98 build/cmsis_os.o
 .text.osMailFree
                0x00000000       0x10 build/cmsis_os.o
 .text.osSystickHandler
                0x00000000       0x10 build/cmsis_os.o
 .text.osThreadSuspend
                0x00000000        0xc build/cmsis_os.o
 .text.osThreadResume
                0x00000000       0x34 build/cmsis_os.o
 .text.osThreadSuspendAll
                0x00000000        0xc build/cmsis_os.o
 .text.osThreadResumeAll
                0x00000000       0x14 build/cmsis_os.o
 .text.osDelayUntil
                0x00000000        0x4 build/cmsis_os.o
 .text.osAbortDelay
                0x00000000        0x4 build/cmsis_os.o
 .text.osThreadList
                0x00000000        0x4 build/cmsis_os.o
 .text.osMessagePeek
                0x00000000       0x5c build/cmsis_os.o
 .text.osMessageWaiting
                0x00000000       0x1c build/cmsis_os.o
 .text.osMessageAvailableSpace
                0x00000000        0x8 build/cmsis_os.o
 .text.osMessageDelete
                0x00000000       0x18 build/cmsis_os.o
 .text.osRecursiveMutexCreate
                0x00000000        0x4 build/cmsis_os.o
 .text.osRecursiveMutexRelease
                0x00000000        0x4 build/cmsis_os.o
 .text.osRecursiveMutexWait
                0x00000000        0x4 build/cmsis_os.o
 .text.osSemaphoreGetCount
                0x00000000        0x8 build/cmsis_os.o
 .rodata.str1.4
                0x00000000        0x1 build/cmsis_os.o
 .text          0x00000000        0x0 build/heap_4.o
 .data          0x00000000        0x0 build/heap_4.o
 .bss           0x00000000        0x0 build/heap_4.o
 .text.xPortGetMinimumEverFreeHeapSize
                0x00000000        0xc build/heap_4.o
 .text.vPortInitialiseBlocks
                0x00000000        0x4 build/heap_4.o
 .text          0x00000000        0x0 build/port.o
 .data          0x00000000        0x0 build/port.o
 .bss           0x00000000        0x0 build/port.o
 .text.vPortEndScheduler
                0x00000000       0x24 build/port.o
 .text          0x00000000        0x0 build/SerialTaskSend.o
 .data          0x00000000        0x0 build/SerialTaskSend.o
 .bss           0x00000000        0x0 build/SerialTaskSend.o
 .text          0x00000000        0x0 build/DTW_counter.o
 .data          0x00000000        0x0 build/DTW_counter.o
 .bss           0x00000000        0x0 build/DTW_counter.o
 .text          0x00000000        0x0 build/CanTask.o
 .data          0x00000000        0x0 build/CanTask.o
 .bss           0x00000000        0x0 build/CanTask.o
 .text.canmsg_expand
                0x00000000       0x48 build/CanTask.o
 .text.xCanRxTaskCreate
                0x00000000       0x48 build/CanTask.o
 .text          0x00000000        0x0 build/can_iface.o
 .data          0x00000000        0x0 build/can_iface.o
 .bss           0x00000000        0x0 build/can_iface.o
 .text          0x00000000        0x0 build/canfilter_setup.o
 .data          0x00000000        0x0 build/canfilter_setup.o
 .bss           0x00000000        0x0 build/canfilter_setup.o
 .text.canfilter_setup_add32b_mskmode
                0x00000000       0xa4 build/canfilter_setup.o
 .text          0x00000000        0x0 build/getserialbuf.o
 .data          0x00000000        0x0 build/getserialbuf.o
 .bss           0x00000000        0x0 build/getserialbuf.o
 .text          0x00000000        0x0 build/yprintf.o
 .data          0x00000000        0x0 build/yprintf.o
 .bss           0x00000000        0x0 build/yprintf.o
 .text.yputs    0x00000000       0x44 build/yprintf.o
 .text          0x00000000        0x0 build/SerialTaskReceive.o
 .data          0x00000000        0x0 build/SerialTaskReceive.o
 .bss           0x00000000        0x0 build/SerialTaskReceive.o
 .text          0x00000000        0x0 build/morse.o
 .data          0x00000000        0x0 build/morse.o
 .bss           0x00000000        0x0 build/morse.o
 .text.morse_string
                0x00000000       0x28 build/morse.o
 .text.morse_hex
                0x00000000       0x4c build/morse.o
 .rodata.h      0x00000000       0x10 build/morse.o
 .text          0x00000000        0x0 build/payload_extract.o
 .data          0x00000000        0x0 build/payload_extract.o
 .bss           0x00000000        0x0 build/payload_extract.o
 .text          0x00000000        0x0 build/MailboxTask.o
 .data          0x00000000        0x0 build/MailboxTask.o
 .bss           0x00000000        0x0 build/MailboxTask.o
 .text.noteskip
                0x00000000       0x2c build/MailboxTask.o
 .text.MailboxTask_disable_notifications
                0x00000000        0xc build/MailboxTask.o
 .text.MailboxTask_enable_notifications
                0x00000000        0xc build/MailboxTask.o
 .text          0x00000000        0x0 build/adctask.o
 .data          0x00000000        0x0 build/adctask.o
 .bss           0x00000000        0x0 build/adctask.o
 .text          0x00000000        0x0 build/ADCTask.o
 .data          0x00000000        0x0 build/ADCTask.o
 .bss           0x00000000        0x0 build/ADCTask.o
 .text          0x00000000        0x0 build/hexbin.o
 .data          0x00000000        0x0 build/hexbin.o
 .bss           0x00000000        0x0 build/hexbin.o
 .text          0x00000000        0x0 build/stackwatermark.o
 .data          0x00000000        0x0 build/stackwatermark.o
 .bss           0x00000000        0x0 build/stackwatermark.o
 .text          0x00000000        0x0 build/adcfastsum16.o
 .data          0x00000000        0x0 build/adcfastsum16.o
 .bss           0x00000000        0x0 build/adcfastsum16.o
 .text          0x00000000        0x0 build/adc_idx_v_struct.o
 .data          0x00000000        0x0 build/adc_idx_v_struct.o
 .bss           0x00000000        0x0 build/adc_idx_v_struct.o
 .text          0x00000000        0x0 build/adcparams.o
 .data          0x00000000        0x0 build/adcparams.o
 .bss           0x00000000        0x0 build/adcparams.o
 .text          0x00000000        0x0 build/adcparamsinit.o
 .data          0x00000000        0x0 build/adcparamsinit.o
 .bss           0x00000000        0x0 build/adcparamsinit.o
 .text.ratiometric_cal_zero_CURRENTMOTOR
                0x00000000       0x10 build/adcparamsinit.o
 COMMON         0x00000000        0x8 build/adcparamsinit.o
 .text          0x00000000        0x0 build/contactor_cmd_msg.o
 .data          0x00000000        0x0 build/contactor_cmd_msg.o
 .bss           0x00000000        0x0 build/contactor_cmd_msg.o
 .text          0x00000000        0x0 build/ContactorEvents.o
 .data          0x00000000        0x0 build/ContactorEvents.o
 .bss           0x00000000        0x0 build/ContactorEvents.o
 .text.ContactorEvents_02
                0x00000000        0x4 build/ContactorEvents.o
 .text          0x00000000        0x0 build/contactor_func_init.o
 .data          0x00000000        0x0 build/contactor_func_init.o
 .bss           0x00000000        0x0 build/contactor_func_init.o
 .text          0x00000000        0x0 build/contactor_hv.o
 .data          0x00000000        0x0 build/contactor_hv.o
 .bss           0x00000000        0x0 build/contactor_hv.o
 .text          0x00000000        0x0 build/contactor_idx_v_struct.o
 .data          0x00000000        0x0 build/contactor_idx_v_struct.o
 .bss           0x00000000        0x0 build/contactor_idx_v_struct.o
 .text          0x00000000        0x0 build/contactor_msgs.o
 .data          0x00000000        0x0 build/contactor_msgs.o
 .bss           0x00000000        0x0 build/contactor_msgs.o
 .text          0x00000000        0x0 build/ContactorStates.o
 .data          0x00000000        0x0 build/ContactorStates.o
 .bss           0x00000000        0x0 build/ContactorStates.o
 .text          0x00000000        0x0 build/ContactorTask.o
 .data          0x00000000        0x0 build/ContactorTask.o
 .bss           0x00000000        0x0 build/ContactorTask.o
 .text          0x00000000        0x0 build/ContactorUpdates.o
 .data          0x00000000        0x0 build/ContactorUpdates.o
 .bss           0x00000000        0x0 build/ContactorUpdates.o
 .text          0x00000000        0x0 build/iir_filter_lx.o
 .data          0x00000000        0x0 build/iir_filter_lx.o
 .bss           0x00000000        0x0 build/iir_filter_lx.o
 .text.iir_filter_lx_double
                0x00000000       0x24 build/iir_filter_lx.o
 .text.iir_filter_lx_float
                0x00000000       0x24 build/iir_filter_lx.o
 .text          0x00000000        0x0 build/adcextendsum.o
 .data          0x00000000        0x0 build/adcextendsum.o
 .bss           0x00000000        0x0 build/adcextendsum.o
 .text          0x00000000        0x0 build/cic_filter_l_N2_M3.o
 .data          0x00000000        0x0 build/cic_filter_l_N2_M3.o
 .bss           0x00000000        0x0 build/cic_filter_l_N2_M3.o
 .text.cic_filter_l_N2_M3
                0x00000000       0x54 build/cic_filter_l_N2_M3.o
 .debug_info    0x00000000      0x18e build/cic_filter_l_N2_M3.o
 .debug_abbrev  0x00000000       0xbb build/cic_filter_l_N2_M3.o
 .debug_loc     0x00000000       0xb7 build/cic_filter_l_N2_M3.o
 .debug_aranges
                0x00000000       0x20 build/cic_filter_l_N2_M3.o
 .debug_ranges  0x00000000       0x10 build/cic_filter_l_N2_M3.o
 .debug_line    0x00000000      0x133 build/cic_filter_l_N2_M3.o
 .debug_str     0x00000000      0x1d7 build/cic_filter_l_N2_M3.o
 .comment       0x00000000       0x6f build/cic_filter_l_N2_M3.o
 .debug_frame   0x00000000       0x20 build/cic_filter_l_N2_M3.o
 .ARM.attributes
                0x00000000       0x33 build/cic_filter_l_N2_M3.o
 .text          0x00000000        0x0 build/cic_computation.o
 .data          0x00000000        0x0 build/cic_computation.o
 .bss           0x00000000        0x0 build/cic_computation.o
 .text.init     0x00000000       0x2c build/cic_computation.o
 .text.cic_computation_init
                0x00000000       0x20 build/cic_computation.o
 .text.cic_computation_filtering
                0x00000000       0x50 build/cic_computation.o
 .debug_info    0x00000000      0x7b1 build/cic_computation.o
 .debug_abbrev  0x00000000      0x14c build/cic_computation.o
 .debug_loc     0x00000000       0xba build/cic_computation.o
 .debug_aranges
                0x00000000       0x30 build/cic_computation.o
 .debug_ranges  0x00000000       0x20 build/cic_computation.o
 .debug_line    0x00000000      0x1d2 build/cic_computation.o
 .debug_str     0x00000000      0x45e build/cic_computation.o
 .comment       0x00000000       0x6f build/cic_computation.o
 .debug_frame   0x00000000       0x5c build/cic_computation.o
 .ARM.attributes
                0x00000000       0x33 build/cic_computation.o
 .text          0x00000000       0x14 build/startup_stm32f103xb.o
 .data          0x00000000        0x0 build/startup_stm32f103xb.o
 .bss           0x00000000        0x0 build/startup_stm32f103xb.o
 .text          0x00000000        0x0 /home/deh/launchpad/gcc-arm-none-eabi-5_4-2016q3/bin/../lib/gcc/arm-none-eabi/5.4.1/../../../../arm-none-eabi/lib/armv7-m/libc.a(lib_a-calloc.o)
 .data          0x00000000        0x0 /home/deh/launchpad/gcc-arm-none-eabi-5_4-2016q3/bin/../lib/gcc/arm-none-eabi/5.4.1/../../../../arm-none-eabi/lib/armv7-m/libc.a(lib_a-calloc.o)
 .bss           0x00000000        0x0 /home/deh/launchpad/gcc-arm-none-eabi-5_4-2016q3/bin/../lib/gcc/arm-none-eabi/5.4.1/../../../../arm-none-eabi/lib/armv7-m/libc.a(lib_a-calloc.o)
 .text          0x00000000        0x0 /home/deh/launchpad/gcc-arm-none-eabi-5_4-2016q3/bin/../lib/gcc/arm-none-eabi/5.4.1/../../../../arm-none-eabi/lib/armv7-m/libc.a(lib_a-callocr.o)
 .data          0x00000000        0x0 /home/deh/launchpad/gcc-arm-none-eabi-5_4-2016q3/bin/../lib/gcc/arm-none-eabi/5.4.1/../../../../arm-none-eabi/lib/armv7-m/libc.a(lib_a-callocr.o)
 .bss           0x00000000        0x0 /home/deh/launchpad/gcc-arm-none-eabi-5_4-2016q3/bin/../lib/gcc/arm-none-eabi/5.4.1/../../../../arm-none-eabi/lib/armv7-m/libc.a(lib_a-callocr.o)
 .text          0x00000000        0x0 /home/deh/launchpad/gcc-arm-none-eabi-5_4-2016q3/bin/../lib/gcc/arm-none-eabi/5.4.1/../../../../arm-none-eabi/lib/armv7-m/libc.a(lib_a-exit.o)
 .data          0x00000000        0x0 /home/deh/launchpad/gcc-arm-none-eabi-5_4-2016q3/bin/../lib/gcc/arm-none-eabi/5.4.1/../../../../arm-none-eabi/lib/armv7-m/libc.a(lib_a-exit.o)
 .bss           0x00000000        0x0 /home/deh/launchpad/gcc-arm-none-eabi-5_4-2016q3/bin/../lib/gcc/arm-none-eabi/5.4.1/../../../../arm-none-eabi/lib/armv7-m/libc.a(lib_a-exit.o)
 .text.exit     0x00000000       0x20 /home/deh/launchpad/gcc-arm-none-eabi-5_4-2016q3/bin/../lib/gcc/arm-none-eabi/5.4.1/../../../../arm-none-eabi/lib/armv7-m/libc.a(lib_a-exit.o)
 .debug_frame   0x00000000       0x28 /home/deh/launchpad/gcc-arm-none-eabi-5_4-2016q3/bin/../lib/gcc/arm-none-eabi/5.4.1/../../../../arm-none-eabi/lib/armv7-m/libc.a(lib_a-exit.o)
 .ARM.attributes
                0x00000000       0x2d /home/deh/launchpad/gcc-arm-none-eabi-5_4-2016q3/bin/../lib/gcc/arm-none-eabi/5.4.1/../../../../arm-none-eabi/lib/armv7-m/libc.a(lib_a-exit.o)
 .text          0x00000000        0x0 /home/deh/launchpad/gcc-arm-none-eabi-5_4-2016q3/bin/../lib/gcc/arm-none-eabi/5.4.1/../../../../arm-none-eabi/lib/armv7-m/libc.a(lib_a-impure.o)
 .data          0x00000000        0x0 /home/deh/launchpad/gcc-arm-none-eabi-5_4-2016q3/bin/../lib/gcc/arm-none-eabi/5.4.1/../../../../arm-none-eabi/lib/armv7-m/libc.a(lib_a-impure.o)
 .bss           0x00000000        0x0 /home/deh/launchpad/gcc-arm-none-eabi-5_4-2016q3/bin/../lib/gcc/arm-none-eabi/5.4.1/../../../../arm-none-eabi/lib/armv7-m/libc.a(lib_a-impure.o)
 .text          0x00000000        0x0 /home/deh/launchpad/gcc-arm-none-eabi-5_4-2016q3/bin/../lib/gcc/arm-none-eabi/5.4.1/../../../../arm-none-eabi/lib/armv7-m/libc.a(lib_a-init.o)
 .data          0x00000000        0x0 /home/deh/launchpad/gcc-arm-none-eabi-5_4-2016q3/bin/../lib/gcc/arm-none-eabi/5.4.1/../../../../arm-none-eabi/lib/armv7-m/libc.a(lib_a-init.o)
 .bss           0x00000000        0x0 /home/deh/launchpad/gcc-arm-none-eabi-5_4-2016q3/bin/../lib/gcc/arm-none-eabi/5.4.1/../../../../arm-none-eabi/lib/armv7-m/libc.a(lib_a-init.o)
 .text          0x00000000        0x0 /home/deh/launchpad/gcc-arm-none-eabi-5_4-2016q3/bin/../lib/gcc/arm-none-eabi/5.4.1/../../../../arm-none-eabi/lib/armv7-m/libc.a(lib_a-mallocr.o)
 .data          0x00000000        0x0 /home/deh/launchpad/gcc-arm-none-eabi-5_4-2016q3/bin/../lib/gcc/arm-none-eabi/5.4.1/../../../../arm-none-eabi/lib/armv7-m/libc.a(lib_a-mallocr.o)
 .bss           0x00000000        0x0 /home/deh/launchpad/gcc-arm-none-eabi-5_4-2016q3/bin/../lib/gcc/arm-none-eabi/5.4.1/../../../../arm-none-eabi/lib/armv7-m/libc.a(lib_a-mallocr.o)
 .data          0x00000000        0x0 /home/deh/launchpad/gcc-arm-none-eabi-5_4-2016q3/bin/../lib/gcc/arm-none-eabi/5.4.1/../../../../arm-none-eabi/lib/armv7-m/libc.a(lib_a-memcpy.o)
 .bss           0x00000000        0x0 /home/deh/launchpad/gcc-arm-none-eabi-5_4-2016q3/bin/../lib/gcc/arm-none-eabi/5.4.1/../../../../arm-none-eabi/lib/armv7-m/libc.a(lib_a-memcpy.o)
 .text          0x00000000        0x0 /home/deh/launchpad/gcc-arm-none-eabi-5_4-2016q3/bin/../lib/gcc/arm-none-eabi/5.4.1/../../../../arm-none-eabi/lib/armv7-m/libc.a(lib_a-memset.o)
 .data          0x00000000        0x0 /home/deh/launchpad/gcc-arm-none-eabi-5_4-2016q3/bin/../lib/gcc/arm-none-eabi/5.4.1/../../../../arm-none-eabi/lib/armv7-m/libc.a(lib_a-memset.o)
 .bss           0x00000000        0x0 /home/deh/launchpad/gcc-arm-none-eabi-5_4-2016q3/bin/../lib/gcc/arm-none-eabi/5.4.1/../../../../arm-none-eabi/lib/armv7-m/libc.a(lib_a-memset.o)
 .text          0x00000000        0x0 /home/deh/launchpad/gcc-arm-none-eabi-5_4-2016q3/bin/../lib/gcc/arm-none-eabi/5.4.1/../../../../arm-none-eabi/lib/armv7-m/libc.a(lib_a-mlock.o)
 .data          0x00000000        0x0 /home/deh/launchpad/gcc-arm-none-eabi-5_4-2016q3/bin/../lib/gcc/arm-none-eabi/5.4.1/../../../../arm-none-eabi/lib/armv7-m/libc.a(lib_a-mlock.o)
 .bss           0x00000000        0x0 /home/deh/launchpad/gcc-arm-none-eabi-5_4-2016q3/bin/../lib/gcc/arm-none-eabi/5.4.1/../../../../arm-none-eabi/lib/armv7-m/libc.a(lib_a-mlock.o)
 .text          0x00000000        0x0 /home/deh/launchpad/gcc-arm-none-eabi-5_4-2016q3/bin/../lib/gcc/arm-none-eabi/5.4.1/../../../../arm-none-eabi/lib/armv7-m/libc.a(lib_a-sbrkr.o)
 .data          0x00000000        0x0 /home/deh/launchpad/gcc-arm-none-eabi-5_4-2016q3/bin/../lib/gcc/arm-none-eabi/5.4.1/../../../../arm-none-eabi/lib/armv7-m/libc.a(lib_a-sbrkr.o)
 .bss           0x00000000        0x0 /home/deh/launchpad/gcc-arm-none-eabi-5_4-2016q3/bin/../lib/gcc/arm-none-eabi/5.4.1/../../../../arm-none-eabi/lib/armv7-m/libc.a(lib_a-sbrkr.o)
 .text          0x00000000        0x0 /home/deh/launchpad/gcc-arm-none-eabi-5_4-2016q3/bin/../lib/gcc/arm-none-eabi/5.4.1/../../../../arm-none-eabi/lib/armv7-m/libc.a(lib_a-strlen-stub.o)
 .data          0x00000000        0x0 /home/deh/launchpad/gcc-arm-none-eabi-5_4-2016q3/bin/../lib/gcc/arm-none-eabi/5.4.1/../../../../arm-none-eabi/lib/armv7-m/libc.a(lib_a-strlen-stub.o)
 .bss           0x00000000        0x0 /home/deh/launchpad/gcc-arm-none-eabi-5_4-2016q3/bin/../lib/gcc/arm-none-eabi/5.4.1/../../../../arm-none-eabi/lib/armv7-m/libc.a(lib_a-strlen-stub.o)
 .text          0x00000000        0x0 /home/deh/launchpad/gcc-arm-none-eabi-5_4-2016q3/bin/../lib/gcc/arm-none-eabi/5.4.1/../../../../arm-none-eabi/lib/armv7-m/libc.a(lib_a-strncpy.o)
 .data          0x00000000        0x0 /home/deh/launchpad/gcc-arm-none-eabi-5_4-2016q3/bin/../lib/gcc/arm-none-eabi/5.4.1/../../../../arm-none-eabi/lib/armv7-m/libc.a(lib_a-strncpy.o)
 .bss           0x00000000        0x0 /home/deh/launchpad/gcc-arm-none-eabi-5_4-2016q3/bin/../lib/gcc/arm-none-eabi/5.4.1/../../../../arm-none-eabi/lib/armv7-m/libc.a(lib_a-strncpy.o)
 .text.strncpy  0x00000000       0x68 /home/deh/launchpad/gcc-arm-none-eabi-5_4-2016q3/bin/../lib/gcc/arm-none-eabi/5.4.1/../../../../arm-none-eabi/lib/armv7-m/libc.a(lib_a-strncpy.o)
 .debug_frame   0x00000000       0x34 /home/deh/launchpad/gcc-arm-none-eabi-5_4-2016q3/bin/../lib/gcc/arm-none-eabi/5.4.1/../../../../arm-none-eabi/lib/armv7-m/libc.a(lib_a-strncpy.o)
 .ARM.attributes
                0x00000000       0x2d /home/deh/launchpad/gcc-arm-none-eabi-5_4-2016q3/bin/../lib/gcc/arm-none-eabi/5.4.1/../../../../arm-none-eabi/lib/armv7-m/libc.a(lib_a-strncpy.o)
 .text          0x00000000        0x0 /home/deh/launchpad/gcc-arm-none-eabi-5_4-2016q3/bin/../lib/gcc/arm-none-eabi/5.4.1/../../../../arm-none-eabi/lib/armv7-m/libc.a(lib_a-vsnprintf.o)
 .data          0x00000000        0x0 /home/deh/launchpad/gcc-arm-none-eabi-5_4-2016q3/bin/../lib/gcc/arm-none-eabi/5.4.1/../../../../arm-none-eabi/lib/armv7-m/libc.a(lib_a-vsnprintf.o)
 .bss           0x00000000        0x0 /home/deh/launchpad/gcc-arm-none-eabi-5_4-2016q3/bin/../lib/gcc/arm-none-eabi/5.4.1/../../../../arm-none-eabi/lib/armv7-m/libc.a(lib_a-vsnprintf.o)
 .text          0x00000000        0x0 /home/deh/launchpad/gcc-arm-none-eabi-5_4-2016q3/bin/../lib/gcc/arm-none-eabi/5.4.1/../../../../arm-none-eabi/lib/armv7-m/libc.a(lib_a-__call_atexit.o)
 .data          0x00000000        0x0 /home/deh/launchpad/gcc-arm-none-eabi-5_4-2016q3/bin/../lib/gcc/arm-none-eabi/5.4.1/../../../../arm-none-eabi/lib/armv7-m/libc.a(lib_a-__call_atexit.o)
 .bss           0x00000000        0x0 /home/deh/launchpad/gcc-arm-none-eabi-5_4-2016q3/bin/../lib/gcc/arm-none-eabi/5.4.1/../../../../arm-none-eabi/lib/armv7-m/libc.a(lib_a-__call_atexit.o)
 .text.__call_exitprocs
                0x00000000       0xd8 /home/deh/launchpad/gcc-arm-none-eabi-5_4-2016q3/bin/../lib/gcc/arm-none-eabi/5.4.1/../../../../arm-none-eabi/lib/armv7-m/libc.a(lib_a-__call_atexit.o)
 .text          0x00000000        0x0 /home/deh/launchpad/gcc-arm-none-eabi-5_4-2016q3/bin/../lib/gcc/arm-none-eabi/5.4.1/../../../../arm-none-eabi/lib/armv7-m/libc.a(lib_a-atexit.o)
 .data          0x00000000        0x0 /home/deh/launchpad/gcc-arm-none-eabi-5_4-2016q3/bin/../lib/gcc/arm-none-eabi/5.4.1/../../../../arm-none-eabi/lib/armv7-m/libc.a(lib_a-atexit.o)
 .bss           0x00000000        0x0 /home/deh/launchpad/gcc-arm-none-eabi-5_4-2016q3/bin/../lib/gcc/arm-none-eabi/5.4.1/../../../../arm-none-eabi/lib/armv7-m/libc.a(lib_a-atexit.o)
 .text          0x00000000        0x0 /home/deh/launchpad/gcc-arm-none-eabi-5_4-2016q3/bin/../lib/gcc/arm-none-eabi/5.4.1/../../../../arm-none-eabi/lib/armv7-m/libc.a(lib_a-fini.o)
 .data          0x00000000        0x0 /home/deh/launchpad/gcc-arm-none-eabi-5_4-2016q3/bin/../lib/gcc/arm-none-eabi/5.4.1/../../../../arm-none-eabi/lib/armv7-m/libc.a(lib_a-fini.o)
 .bss           0x00000000        0x0 /home/deh/launchpad/gcc-arm-none-eabi-5_4-2016q3/bin/../lib/gcc/arm-none-eabi/5.4.1/../../../../arm-none-eabi/lib/armv7-m/libc.a(lib_a-fini.o)
 .text          0x00000000        0x0 /home/deh/launchpad/gcc-arm-none-eabi-5_4-2016q3/bin/../lib/gcc/arm-none-eabi/5.4.1/../../../../arm-none-eabi/lib/armv7-m/libc.a(lib_a-freer.o)
 .data          0x00000000        0x0 /home/deh/launchpad/gcc-arm-none-eabi-5_4-2016q3/bin/../lib/gcc/arm-none-eabi/5.4.1/../../../../arm-none-eabi/lib/armv7-m/libc.a(lib_a-freer.o)
 .bss           0x00000000        0x0 /home/deh/launchpad/gcc-arm-none-eabi-5_4-2016q3/bin/../lib/gcc/arm-none-eabi/5.4.1/../../../../arm-none-eabi/lib/armv7-m/libc.a(lib_a-freer.o)
 .text          0x00000000        0x0 /home/deh/launchpad/gcc-arm-none-eabi-5_4-2016q3/bin/../lib/gcc/arm-none-eabi/5.4.1/../../../../arm-none-eabi/lib/armv7-m/libc.a(lib_a-reent.o)
 .data          0x00000000        0x0 /home/deh/launchpad/gcc-arm-none-eabi-5_4-2016q3/bin/../lib/gcc/arm-none-eabi/5.4.1/../../../../arm-none-eabi/lib/armv7-m/libc.a(lib_a-reent.o)
 .bss           0x00000000        0x0 /home/deh/launchpad/gcc-arm-none-eabi-5_4-2016q3/bin/../lib/gcc/arm-none-eabi/5.4.1/../../../../arm-none-eabi/lib/armv7-m/libc.a(lib_a-reent.o)
 .text.cleanup_glue
                0x00000000       0x1c /home/deh/launchpad/gcc-arm-none-eabi-5_4-2016q3/bin/../lib/gcc/arm-none-eabi/5.4.1/../../../../arm-none-eabi/lib/armv7-m/libc.a(lib_a-reent.o)
 .text._reclaim_reent
                0x00000000       0x88 /home/deh/launchpad/gcc-arm-none-eabi-5_4-2016q3/bin/../lib/gcc/arm-none-eabi/5.4.1/../../../../arm-none-eabi/lib/armv7-m/libc.a(lib_a-reent.o)
 .text          0x00000000        0x0 /home/deh/launchpad/gcc-arm-none-eabi-5_4-2016q3/bin/../lib/gcc/arm-none-eabi/5.4.1/../../../../arm-none-eabi/lib/armv7-m/libc.a(lib_a-svfprintf.o)
 .data          0x00000000        0x0 /home/deh/launchpad/gcc-arm-none-eabi-5_4-2016q3/bin/../lib/gcc/arm-none-eabi/5.4.1/../../../../arm-none-eabi/lib/armv7-m/libc.a(lib_a-svfprintf.o)
 .bss           0x00000000        0x0 /home/deh/launchpad/gcc-arm-none-eabi-5_4-2016q3/bin/../lib/gcc/arm-none-eabi/5.4.1/../../../../arm-none-eabi/lib/armv7-m/libc.a(lib_a-svfprintf.o)
 .text          0x00000000        0x0 /home/deh/launchpad/gcc-arm-none-eabi-5_4-2016q3/bin/../lib/gcc/arm-none-eabi/5.4.1/../../../../arm-none-eabi/lib/armv7-m/libc.a(lib_a-__atexit.o)
 .data          0x00000000        0x0 /home/deh/launchpad/gcc-arm-none-eabi-5_4-2016q3/bin/../lib/gcc/arm-none-eabi/5.4.1/../../../../arm-none-eabi/lib/armv7-m/libc.a(lib_a-__atexit.o)
 .bss           0x00000000        0x0 /home/deh/launchpad/gcc-arm-none-eabi-5_4-2016q3/bin/../lib/gcc/arm-none-eabi/5.4.1/../../../../arm-none-eabi/lib/armv7-m/libc.a(lib_a-__atexit.o)
 .text          0x00000000        0x0 /home/deh/launchpad/gcc-arm-none-eabi-5_4-2016q3/bin/../lib/gcc/arm-none-eabi/5.4.1/../../../../arm-none-eabi/lib/armv7-m/libc.a(lib_a-dtoa.o)
 .data          0x00000000        0x0 /home/deh/launchpad/gcc-arm-none-eabi-5_4-2016q3/bin/../lib/gcc/arm-none-eabi/5.4.1/../../../../arm-none-eabi/lib/armv7-m/libc.a(lib_a-dtoa.o)
 .bss           0x00000000        0x0 /home/deh/launchpad/gcc-arm-none-eabi-5_4-2016q3/bin/../lib/gcc/arm-none-eabi/5.4.1/../../../../arm-none-eabi/lib/armv7-m/libc.a(lib_a-dtoa.o)
 .text          0x00000000        0x0 /home/deh/launchpad/gcc-arm-none-eabi-5_4-2016q3/bin/../lib/gcc/arm-none-eabi/5.4.1/../../../../arm-none-eabi/lib/armv7-m/libc.a(lib_a-localeconv.o)
 .data          0x00000000        0x0 /home/deh/launchpad/gcc-arm-none-eabi-5_4-2016q3/bin/../lib/gcc/arm-none-eabi/5.4.1/../../../../arm-none-eabi/lib/armv7-m/libc.a(lib_a-localeconv.o)
 .bss           0x00000000        0x0 /home/deh/launchpad/gcc-arm-none-eabi-5_4-2016q3/bin/../lib/gcc/arm-none-eabi/5.4.1/../../../../arm-none-eabi/lib/armv7-m/libc.a(lib_a-localeconv.o)
 .text.__localeconv_l
                0x00000000        0x4 /home/deh/launchpad/gcc-arm-none-eabi-5_4-2016q3/bin/../lib/gcc/arm-none-eabi/5.4.1/../../../../arm-none-eabi/lib/armv7-m/libc.a(lib_a-localeconv.o)
 .text.localeconv
                0x00000000       0x1c /home/deh/launchpad/gcc-arm-none-eabi-5_4-2016q3/bin/../lib/gcc/arm-none-eabi/5.4.1/../../../../arm-none-eabi/lib/armv7-m/libc.a(lib_a-localeconv.o)
 .text          0x00000000        0x0 /home/deh/launchpad/gcc-arm-none-eabi-5_4-2016q3/bin/../lib/gcc/arm-none-eabi/5.4.1/../../../../arm-none-eabi/lib/armv7-m/libc.a(lib_a-memchr-stub.o)
 .data          0x00000000        0x0 /home/deh/launchpad/gcc-arm-none-eabi-5_4-2016q3/bin/../lib/gcc/arm-none-eabi/5.4.1/../../../../arm-none-eabi/lib/armv7-m/libc.a(lib_a-memchr-stub.o)
 .bss           0x00000000        0x0 /home/deh/launchpad/gcc-arm-none-eabi-5_4-2016q3/bin/../lib/gcc/arm-none-eabi/5.4.1/../../../../arm-none-eabi/lib/armv7-m/libc.a(lib_a-memchr-stub.o)
 .text          0x00000000        0x0 /home/deh/launchpad/gcc-arm-none-eabi-5_4-2016q3/bin/../lib/gcc/arm-none-eabi/5.4.1/../../../../arm-none-eabi/lib/armv7-m/libc.a(lib_a-mprec.o)
 .data          0x00000000        0x0 /home/deh/launchpad/gcc-arm-none-eabi-5_4-2016q3/bin/../lib/gcc/arm-none-eabi/5.4.1/../../../../arm-none-eabi/lib/armv7-m/libc.a(lib_a-mprec.o)
 .bss           0x00000000        0x0 /home/deh/launchpad/gcc-arm-none-eabi-5_4-2016q3/bin/../lib/gcc/arm-none-eabi/5.4.1/../../../../arm-none-eabi/lib/armv7-m/libc.a(lib_a-mprec.o)
 .text.__s2b    0x00000000       0x98 /home/deh/launchpad/gcc-arm-none-eabi-5_4-2016q3/bin/../lib/gcc/arm-none-eabi/5.4.1/../../../../arm-none-eabi/lib/armv7-m/libc.a(lib_a-mprec.o)
 .text.__ulp    0x00000000       0x44 /home/deh/launchpad/gcc-arm-none-eabi-5_4-2016q3/bin/../lib/gcc/arm-none-eabi/5.4.1/../../../../arm-none-eabi/lib/armv7-m/libc.a(lib_a-mprec.o)
 .text.__b2d    0x00000000       0xd4 /home/deh/launchpad/gcc-arm-none-eabi-5_4-2016q3/bin/../lib/gcc/arm-none-eabi/5.4.1/../../../../arm-none-eabi/lib/armv7-m/libc.a(lib_a-mprec.o)
 .text.__ratio  0x00000000       0x54 /home/deh/launchpad/gcc-arm-none-eabi-5_4-2016q3/bin/../lib/gcc/arm-none-eabi/5.4.1/../../../../arm-none-eabi/lib/armv7-m/libc.a(lib_a-mprec.o)
 .text._mprec_log10
                0x00000000       0x34 /home/deh/launchpad/gcc-arm-none-eabi-5_4-2016q3/bin/../lib/gcc/arm-none-eabi/5.4.1/../../../../arm-none-eabi/lib/armv7-m/libc.a(lib_a-mprec.o)
 .text.__copybits
                0x00000000       0x48 /home/deh/launchpad/gcc-arm-none-eabi-5_4-2016q3/bin/../lib/gcc/arm-none-eabi/5.4.1/../../../../arm-none-eabi/lib/armv7-m/libc.a(lib_a-mprec.o)
 .text.__any_on
                0x00000000       0x5c /home/deh/launchpad/gcc-arm-none-eabi-5_4-2016q3/bin/../lib/gcc/arm-none-eabi/5.4.1/../../../../arm-none-eabi/lib/armv7-m/libc.a(lib_a-mprec.o)
 .rodata.__mprec_tinytens
                0x00000000       0x28 /home/deh/launchpad/gcc-arm-none-eabi-5_4-2016q3/bin/../lib/gcc/arm-none-eabi/5.4.1/../../../../arm-none-eabi/lib/armv7-m/libc.a(lib_a-mprec.o)
 .text          0x00000000        0x0 /home/deh/launchpad/gcc-arm-none-eabi-5_4-2016q3/bin/../lib/gcc/arm-none-eabi/5.4.1/../../../../arm-none-eabi/lib/armv7-m/libc.a(lib_a-svfiprintf.o)
 .data          0x00000000        0x0 /home/deh/launchpad/gcc-arm-none-eabi-5_4-2016q3/bin/../lib/gcc/arm-none-eabi/5.4.1/../../../../arm-none-eabi/lib/armv7-m/libc.a(lib_a-svfiprintf.o)
 .bss           0x00000000        0x0 /home/deh/launchpad/gcc-arm-none-eabi-5_4-2016q3/bin/../lib/gcc/arm-none-eabi/5.4.1/../../../../arm-none-eabi/lib/armv7-m/libc.a(lib_a-svfiprintf.o)
 .text._svfiprintf_r
                0x00000000      0xc4c /home/deh/launchpad/gcc-arm-none-eabi-5_4-2016q3/bin/../lib/gcc/arm-none-eabi/5.4.1/../../../../arm-none-eabi/lib/armv7-m/libc.a(lib_a-svfiprintf.o)
 .rodata.blanks.7235
                0x00000000       0x10 /home/deh/launchpad/gcc-arm-none-eabi-5_4-2016q3/bin/../lib/gcc/arm-none-eabi/5.4.1/../../../../arm-none-eabi/lib/armv7-m/libc.a(lib_a-svfiprintf.o)
 .rodata.str1.4
                0x00000000       0x2f /home/deh/launchpad/gcc-arm-none-eabi-5_4-2016q3/bin/../lib/gcc/arm-none-eabi/5.4.1/../../../../arm-none-eabi/lib/armv7-m/libc.a(lib_a-svfiprintf.o)
 .rodata.zeroes.7236
                0x00000000       0x10 /home/deh/launchpad/gcc-arm-none-eabi-5_4-2016q3/bin/../lib/gcc/arm-none-eabi/5.4.1/../../../../arm-none-eabi/lib/armv7-m/libc.a(lib_a-svfiprintf.o)
 .text          0x00000000        0x0 /home/deh/launchpad/gcc-arm-none-eabi-5_4-2016q3/bin/../lib/gcc/arm-none-eabi/5.4.1/../../../../arm-none-eabi/lib/armv7-m/libc.a(lib_a-locale.o)
 .data          0x00000000        0x0 /home/deh/launchpad/gcc-arm-none-eabi-5_4-2016q3/bin/../lib/gcc/arm-none-eabi/5.4.1/../../../../arm-none-eabi/lib/armv7-m/libc.a(lib_a-locale.o)
 .bss           0x00000000        0x0 /home/deh/launchpad/gcc-arm-none-eabi-5_4-2016q3/bin/../lib/gcc/arm-none-eabi/5.4.1/../../../../arm-none-eabi/lib/armv7-m/libc.a(lib_a-locale.o)
 .text.__get_current_locale
                0x00000000       0x18 /home/deh/launchpad/gcc-arm-none-eabi-5_4-2016q3/bin/../lib/gcc/arm-none-eabi/5.4.1/../../../../arm-none-eabi/lib/armv7-m/libc.a(lib_a-locale.o)
 .text._setlocale_r
                0x00000000       0x40 /home/deh/launchpad/gcc-arm-none-eabi-5_4-2016q3/bin/../lib/gcc/arm-none-eabi/5.4.1/../../../../arm-none-eabi/lib/armv7-m/libc.a(lib_a-locale.o)
 .text.__locale_mb_cur_max
                0x00000000       0x1c /home/deh/launchpad/gcc-arm-none-eabi-5_4-2016q3/bin/../lib/gcc/arm-none-eabi/5.4.1/../../../../arm-none-eabi/lib/armv7-m/libc.a(lib_a-locale.o)
 .text.__locale_ctype_ptr_l
                0x00000000        0x8 /home/deh/launchpad/gcc-arm-none-eabi-5_4-2016q3/bin/../lib/gcc/arm-none-eabi/5.4.1/../../../../arm-none-eabi/lib/armv7-m/libc.a(lib_a-locale.o)
 .text.__locale_ctype_ptr
                0x00000000       0x14 /home/deh/launchpad/gcc-arm-none-eabi-5_4-2016q3/bin/../lib/gcc/arm-none-eabi/5.4.1/../../../../arm-none-eabi/lib/armv7-m/libc.a(lib_a-locale.o)
 .text.setlocale
                0x00000000       0x10 /home/deh/launchpad/gcc-arm-none-eabi-5_4-2016q3/bin/../lib/gcc/arm-none-eabi/5.4.1/../../../../arm-none-eabi/lib/armv7-m/libc.a(lib_a-locale.o)
 .bss._PathLocale
                0x00000000        0x4 /home/deh/launchpad/gcc-arm-none-eabi-5_4-2016q3/bin/../lib/gcc/arm-none-eabi/5.4.1/../../../../arm-none-eabi/lib/armv7-m/libc.a(lib_a-locale.o)
 .text          0x00000000        0x0 /home/deh/launchpad/gcc-arm-none-eabi-5_4-2016q3/bin/../lib/gcc/arm-none-eabi/5.4.1/../../../../arm-none-eabi/lib/armv7-m/libc.a(lib_a-mbtowc_r.o)
 .data          0x00000000        0x0 /home/deh/launchpad/gcc-arm-none-eabi-5_4-2016q3/bin/../lib/gcc/arm-none-eabi/5.4.1/../../../../arm-none-eabi/lib/armv7-m/libc.a(lib_a-mbtowc_r.o)
 .bss           0x00000000        0x0 /home/deh/launchpad/gcc-arm-none-eabi-5_4-2016q3/bin/../lib/gcc/arm-none-eabi/5.4.1/../../../../arm-none-eabi/lib/armv7-m/libc.a(lib_a-mbtowc_r.o)
 .text._mbtowc_r
                0x00000000       0x24 /home/deh/launchpad/gcc-arm-none-eabi-5_4-2016q3/bin/../lib/gcc/arm-none-eabi/5.4.1/../../../../arm-none-eabi/lib/armv7-m/libc.a(lib_a-mbtowc_r.o)
 .text          0x00000000        0x0 /home/deh/launchpad/gcc-arm-none-eabi-5_4-2016q3/bin/../lib/gcc/arm-none-eabi/5.4.1/../../../../arm-none-eabi/lib/armv7-m/libc.a(lib_a-memmove.o)
 .data          0x00000000        0x0 /home/deh/launchpad/gcc-arm-none-eabi-5_4-2016q3/bin/../lib/gcc/arm-none-eabi/5.4.1/../../../../arm-none-eabi/lib/armv7-m/libc.a(lib_a-memmove.o)
 .bss           0x00000000        0x0 /home/deh/launchpad/gcc-arm-none-eabi-5_4-2016q3/bin/../lib/gcc/arm-none-eabi/5.4.1/../../../../arm-none-eabi/lib/armv7-m/libc.a(lib_a-memmove.o)
 .text          0x00000000        0x0 /home/deh/launchpad/gcc-arm-none-eabi-5_4-2016q3/bin/../lib/gcc/arm-none-eabi/5.4.1/../../../../arm-none-eabi/lib/armv7-m/libc.a(lib_a-reallocr.o)
 .data          0x00000000        0x0 /home/deh/launchpad/gcc-arm-none-eabi-5_4-2016q3/bin/../lib/gcc/arm-none-eabi/5.4.1/../../../../arm-none-eabi/lib/armv7-m/libc.a(lib_a-reallocr.o)
 .bss           0x00000000        0x0 /home/deh/launchpad/gcc-arm-none-eabi-5_4-2016q3/bin/../lib/gcc/arm-none-eabi/5.4.1/../../../../arm-none-eabi/lib/armv7-m/libc.a(lib_a-reallocr.o)
 .text          0x00000000      0x1bc /home/deh/launchpad/gcc-arm-none-eabi-5_4-2016q3/bin/../lib/gcc/arm-none-eabi/5.4.1/../../../../arm-none-eabi/lib/armv7-m/libc.a(lib_a-strcmp.o)
 .data          0x00000000        0x0 /home/deh/launchpad/gcc-arm-none-eabi-5_4-2016q3/bin/../lib/gcc/arm-none-eabi/5.4.1/../../../../arm-none-eabi/lib/armv7-m/libc.a(lib_a-strcmp.o)
 .bss           0x00000000        0x0 /home/deh/launchpad/gcc-arm-none-eabi-5_4-2016q3/bin/../lib/gcc/arm-none-eabi/5.4.1/../../../../arm-none-eabi/lib/armv7-m/libc.a(lib_a-strcmp.o)
 .debug_frame   0x00000000       0x34 /home/deh/launchpad/gcc-arm-none-eabi-5_4-2016q3/bin/../lib/gcc/arm-none-eabi/5.4.1/../../../../arm-none-eabi/lib/armv7-m/libc.a(lib_a-strcmp.o)
 .ARM.attributes
                0x00000000       0x1b /home/deh/launchpad/gcc-arm-none-eabi-5_4-2016q3/bin/../lib/gcc/arm-none-eabi/5.4.1/../../../../arm-none-eabi/lib/armv7-m/libc.a(lib_a-strcmp.o)
 .text          0x00000000        0x0 /home/deh/launchpad/gcc-arm-none-eabi-5_4-2016q3/bin/../lib/gcc/arm-none-eabi/5.4.1/../../../../arm-none-eabi/lib/armv7-m/libc.a(lib_a-wctomb_r.o)
 .data          0x00000000        0x0 /home/deh/launchpad/gcc-arm-none-eabi-5_4-2016q3/bin/../lib/gcc/arm-none-eabi/5.4.1/../../../../arm-none-eabi/lib/armv7-m/libc.a(lib_a-wctomb_r.o)
 .bss           0x00000000        0x0 /home/deh/launchpad/gcc-arm-none-eabi-5_4-2016q3/bin/../lib/gcc/arm-none-eabi/5.4.1/../../../../arm-none-eabi/lib/armv7-m/libc.a(lib_a-wctomb_r.o)
 .text._wctomb_r
                0x00000000       0x24 /home/deh/launchpad/gcc-arm-none-eabi-5_4-2016q3/bin/../lib/gcc/arm-none-eabi/5.4.1/../../../../arm-none-eabi/lib/armv7-m/libc.a(lib_a-wctomb_r.o)
 .text          0x00000000        0x0 /home/deh/launchpad/gcc-arm-none-eabi-5_4-2016q3/bin/../lib/gcc/arm-none-eabi/5.4.1/../../../../arm-none-eabi/lib/armv7-m/libc.a(lib_a-ctype_.o)
 .data          0x00000000        0x0 /home/deh/launchpad/gcc-arm-none-eabi-5_4-2016q3/bin/../lib/gcc/arm-none-eabi/5.4.1/../../../../arm-none-eabi/lib/armv7-m/libc.a(lib_a-ctype_.o)
 .bss           0x00000000        0x0 /home/deh/launchpad/gcc-arm-none-eabi-5_4-2016q3/bin/../lib/gcc/arm-none-eabi/5.4.1/../../../../arm-none-eabi/lib/armv7-m/libc.a(lib_a-ctype_.o)
 .text          0x00000000        0x0 /home/deh/launchpad/gcc-arm-none-eabi-5_4-2016q3/bin/../lib/gcc/arm-none-eabi/5.4.1/../../../../arm-none-eabi/lib/armv7-m/libnosys.a(sbrk.o)
 .data          0x00000000        0x0 /home/deh/launchpad/gcc-arm-none-eabi-5_4-2016q3/bin/../lib/gcc/arm-none-eabi/5.4.1/../../../../arm-none-eabi/lib/armv7-m/libnosys.a(sbrk.o)
 .bss           0x00000000        0x0 /home/deh/launchpad/gcc-arm-none-eabi-5_4-2016q3/bin/../lib/gcc/arm-none-eabi/5.4.1/../../../../arm-none-eabi/lib/armv7-m/libnosys.a(sbrk.o)
 .text          0x00000000        0x0 /home/deh/launchpad/gcc-arm-none-eabi-5_4-2016q3/bin/../lib/gcc/arm-none-eabi/5.4.1/../../../../arm-none-eabi/lib/armv7-m/libnosys.a(_exit.o)
 .data          0x00000000        0x0 /home/deh/launchpad/gcc-arm-none-eabi-5_4-2016q3/bin/../lib/gcc/arm-none-eabi/5.4.1/../../../../arm-none-eabi/lib/armv7-m/libnosys.a(_exit.o)
 .bss           0x00000000        0x0 /home/deh/launchpad/gcc-arm-none-eabi-5_4-2016q3/bin/../lib/gcc/arm-none-eabi/5.4.1/../../../../arm-none-eabi/lib/armv7-m/libnosys.a(_exit.o)
 .text._exit    0x00000000        0x4 /home/deh/launchpad/gcc-arm-none-eabi-5_4-2016q3/bin/../lib/gcc/arm-none-eabi/5.4.1/../../../../arm-none-eabi/lib/armv7-m/libnosys.a(_exit.o)
 .debug_frame   0x00000000       0x20 /home/deh/launchpad/gcc-arm-none-eabi-5_4-2016q3/bin/../lib/gcc/arm-none-eabi/5.4.1/../../../../arm-none-eabi/lib/armv7-m/libnosys.a(_exit.o)
 .ARM.attributes
                0x00000000       0x2d /home/deh/launchpad/gcc-arm-none-eabi-5_4-2016q3/bin/../lib/gcc/arm-none-eabi/5.4.1/../../../../arm-none-eabi/lib/armv7-m/libnosys.a(_exit.o)
 .data          0x00000000        0x0 /home/deh/launchpad/gcc-arm-none-eabi-5_4-2016q3/bin/../lib/gcc/arm-none-eabi/5.4.1/armv7-m/libgcc.a(_arm_addsubdf3.o)
 .bss           0x00000000        0x0 /home/deh/launchpad/gcc-arm-none-eabi-5_4-2016q3/bin/../lib/gcc/arm-none-eabi/5.4.1/armv7-m/libgcc.a(_arm_addsubdf3.o)
 .data          0x00000000        0x0 /home/deh/launchpad/gcc-arm-none-eabi-5_4-2016q3/bin/../lib/gcc/arm-none-eabi/5.4.1/armv7-m/libgcc.a(_arm_muldivdf3.o)
 .bss           0x00000000        0x0 /home/deh/launchpad/gcc-arm-none-eabi-5_4-2016q3/bin/../lib/gcc/arm-none-eabi/5.4.1/armv7-m/libgcc.a(_arm_muldivdf3.o)
 .data          0x00000000        0x0 /home/deh/launchpad/gcc-arm-none-eabi-5_4-2016q3/bin/../lib/gcc/arm-none-eabi/5.4.1/armv7-m/libgcc.a(_arm_cmpdf2.o)
 .bss           0x00000000        0x0 /home/deh/launchpad/gcc-arm-none-eabi-5_4-2016q3/bin/../lib/gcc/arm-none-eabi/5.4.1/armv7-m/libgcc.a(_arm_cmpdf2.o)
 .data          0x00000000        0x0 /home/deh/launchpad/gcc-arm-none-eabi-5_4-2016q3/bin/../lib/gcc/arm-none-eabi/5.4.1/armv7-m/libgcc.a(_arm_unorddf2.o)
 .bss           0x00000000        0x0 /home/deh/launchpad/gcc-arm-none-eabi-5_4-2016q3/bin/../lib/gcc/arm-none-eabi/5.4.1/armv7-m/libgcc.a(_arm_unorddf2.o)
 .data          0x00000000        0x0 /home/deh/launchpad/gcc-arm-none-eabi-5_4-2016q3/bin/../lib/gcc/arm-none-eabi/5.4.1/armv7-m/libgcc.a(_arm_fixdfsi.o)
 .bss           0x00000000        0x0 /home/deh/launchpad/gcc-arm-none-eabi-5_4-2016q3/bin/../lib/gcc/arm-none-eabi/5.4.1/armv7-m/libgcc.a(_arm_fixdfsi.o)
 .data          0x00000000        0x0 /home/deh/launchpad/gcc-arm-none-eabi-5_4-2016q3/bin/../lib/gcc/arm-none-eabi/5.4.1/armv7-m/libgcc.a(_arm_fixunsdfsi.o)
 .bss           0x00000000        0x0 /home/deh/launchpad/gcc-arm-none-eabi-5_4-2016q3/bin/../lib/gcc/arm-none-eabi/5.4.1/armv7-m/libgcc.a(_arm_fixunsdfsi.o)
 .data          0x00000000        0x0 /home/deh/launchpad/gcc-arm-none-eabi-5_4-2016q3/bin/../lib/gcc/arm-none-eabi/5.4.1/armv7-m/libgcc.a(_arm_truncdfsf2.o)
 .bss           0x00000000        0x0 /home/deh/launchpad/gcc-arm-none-eabi-5_4-2016q3/bin/../lib/gcc/arm-none-eabi/5.4.1/armv7-m/libgcc.a(_arm_truncdfsf2.o)
 .data          0x00000000        0x0 /home/deh/launchpad/gcc-arm-none-eabi-5_4-2016q3/bin/../lib/gcc/arm-none-eabi/5.4.1/armv7-m/libgcc.a(_arm_addsubsf3.o)
 .bss           0x00000000        0x0 /home/deh/launchpad/gcc-arm-none-eabi-5_4-2016q3/bin/../lib/gcc/arm-none-eabi/5.4.1/armv7-m/libgcc.a(_arm_addsubsf3.o)
 .text          0x00000000      0x2a0 /home/deh/launchpad/gcc-arm-none-eabi-5_4-2016q3/bin/../lib/gcc/arm-none-eabi/5.4.1/armv7-m/libgcc.a(_arm_muldivsf3.o)
 .data          0x00000000        0x0 /home/deh/launchpad/gcc-arm-none-eabi-5_4-2016q3/bin/../lib/gcc/arm-none-eabi/5.4.1/armv7-m/libgcc.a(_arm_muldivsf3.o)
 .bss           0x00000000        0x0 /home/deh/launchpad/gcc-arm-none-eabi-5_4-2016q3/bin/../lib/gcc/arm-none-eabi/5.4.1/armv7-m/libgcc.a(_arm_muldivsf3.o)
 .ARM.attributes
                0x00000000       0x1d /home/deh/launchpad/gcc-arm-none-eabi-5_4-2016q3/bin/../lib/gcc/arm-none-eabi/5.4.1/armv7-m/libgcc.a(_arm_muldivsf3.o)
 .data          0x00000000        0x0 /home/deh/launchpad/gcc-arm-none-eabi-5_4-2016q3/bin/../lib/gcc/arm-none-eabi/5.4.1/armv7-m/libgcc.a(_aeabi_uldivmod.o)
 .bss           0x00000000        0x0 /home/deh/launchpad/gcc-arm-none-eabi-5_4-2016q3/bin/../lib/gcc/arm-none-eabi/5.4.1/armv7-m/libgcc.a(_aeabi_uldivmod.o)
 .data          0x00000000        0x0 /home/deh/launchpad/gcc-arm-none-eabi-5_4-2016q3/bin/../lib/gcc/arm-none-eabi/5.4.1/armv7-m/libgcc.a(_udivmoddi4.o)
 .bss           0x00000000        0x0 /home/deh/launchpad/gcc-arm-none-eabi-5_4-2016q3/bin/../lib/gcc/arm-none-eabi/5.4.1/armv7-m/libgcc.a(_udivmoddi4.o)
 .ARM.extab     0x00000000        0x0 /home/deh/launchpad/gcc-arm-none-eabi-5_4-2016q3/bin/../lib/gcc/arm-none-eabi/5.4.1/armv7-m/libgcc.a(_udivmoddi4.o)
 .data          0x00000000        0x0 /home/deh/launchpad/gcc-arm-none-eabi-5_4-2016q3/bin/../lib/gcc/arm-none-eabi/5.4.1/armv7-m/libgcc.a(_dvmd_tls.o)
 .bss           0x00000000        0x0 /home/deh/launchpad/gcc-arm-none-eabi-5_4-2016q3/bin/../lib/gcc/arm-none-eabi/5.4.1/armv7-m/libgcc.a(_dvmd_tls.o)
 .text          0x00000000        0x0 /home/deh/launchpad/gcc-arm-none-eabi-5_4-2016q3/bin/../lib/gcc/arm-none-eabi/5.4.1/armv7-m/crtend.o
 .data          0x00000000        0x0 /home/deh/launchpad/gcc-arm-none-eabi-5_4-2016q3/bin/../lib/gcc/arm-none-eabi/5.4.1/armv7-m/crtend.o
 .bss           0x00000000        0x0 /home/deh/launchpad/gcc-arm-none-eabi-5_4-2016q3/bin/../lib/gcc/arm-none-eabi/5.4.1/armv7-m/crtend.o
 .eh_frame      0x00000000        0x4 /home/deh/launchpad/gcc-arm-none-eabi-5_4-2016q3/bin/../lib/gcc/arm-none-eabi/5.4.1/armv7-m/crtend.o
 .jcr           0x00000000        0x4 /home/deh/launchpad/gcc-arm-none-eabi-5_4-2016q3/bin/../lib/gcc/arm-none-eabi/5.4.1/armv7-m/crtend.o
 .ARM.attributes
                0x00000000       0x2d /home/deh/launchpad/gcc-arm-none-eabi-5_4-2016q3/bin/../lib/gcc/arm-none-eabi/5.4.1/armv7-m/crtend.o
 .text          0x00000000        0x0 /home/deh/launchpad/gcc-arm-none-eabi-5_4-2016q3/bin/../lib/gcc/arm-none-eabi/5.4.1/armv7-m/crtn.o
 .data          0x00000000        0x0 /home/deh/launchpad/gcc-arm-none-eabi-5_4-2016q3/bin/../lib/gcc/arm-none-eabi/5.4.1/armv7-m/crtn.o
 .bss           0x00000000        0x0 /home/deh/launchpad/gcc-arm-none-eabi-5_4-2016q3/bin/../lib/gcc/arm-none-eabi/5.4.1/armv7-m/crtn.o

Memory Configuration

Name             Origin             Length             Attributes
RAM              0x20000000         0x00005000         xrw
FLASH            0x08000000         0x00010000         xr
*default*        0x00000000         0xffffffff

Linker script and memory map

LOAD /home/deh/launchpad/gcc-arm-none-eabi-5_4-2016q3/bin/../lib/gcc/arm-none-eabi/5.4.1/armv7-m/crti.o
LOAD /home/deh/launchpad/gcc-arm-none-eabi-5_4-2016q3/bin/../lib/gcc/arm-none-eabi/5.4.1/armv7-m/crtbegin.o
LOAD /home/deh/launchpad/gcc-arm-none-eabi-5_4-2016q3/bin/../lib/gcc/arm-none-eabi/5.4.1/../../../../arm-none-eabi/lib/armv7-m/crt0.o
LOAD build/main.o
LOAD build/stm32f1xx_it.o
LOAD build/stm32f1xx_hal_msp.o
LOAD build/stm32f1xx_hal_gpio_ex.o
LOAD build/stm32f1xx_hal_tim.o
LOAD build/stm32f1xx_hal_tim_ex.o
LOAD build/stm32f1xx_hal.o
LOAD build/stm32f1xx_hal_rcc.o
LOAD build/stm32f1xx_hal_rcc_ex.o
LOAD build/stm32f1xx_hal_gpio.o
LOAD build/stm32f1xx_hal_dma.o
LOAD build/stm32f1xx_hal_cortex.o
LOAD build/stm32f1xx_hal_pwr.o
LOAD build/stm32f1xx_hal_flash.o
LOAD build/stm32f1xx_hal_flash_ex.o
LOAD build/system_stm32f1xx.o
LOAD build/freertos.o
LOAD build/stm32f1xx_hal_timebase_tim.o
LOAD build/stm32f1xx_hal_adc.o
LOAD build/stm32f1xx_hal_adc_ex.o
LOAD build/stm32f1xx_hal_can.o
LOAD build/stm32f1xx_hal_uart.o
LOAD build/croutine.o
LOAD build/event_groups.o
LOAD build/list.o
LOAD build/queue.o
LOAD build/tasks.o
LOAD build/timers.o
LOAD build/cmsis_os.o
LOAD build/heap_4.o
LOAD build/port.o
LOAD build/SerialTaskSend.o
LOAD build/DTW_counter.o
LOAD build/CanTask.o
LOAD build/can_iface.o
LOAD build/canfilter_setup.o
LOAD build/getserialbuf.o
LOAD build/yprintf.o
LOAD build/SerialTaskReceive.o
LOAD build/morse.o
LOAD build/payload_extract.o
LOAD build/MailboxTask.o
LOAD build/adctask.o
LOAD build/ADCTask.o
LOAD build/hexbin.o
LOAD build/stackwatermark.o
LOAD build/adcfastsum16.o
LOAD build/adc_idx_v_struct.o
LOAD build/adcparams.o
LOAD build/adcparamsinit.o
LOAD build/contactor_cmd_msg.o
LOAD build/ContactorEvents.o
LOAD build/contactor_func_init.o
LOAD build/contactor_hv.o
LOAD build/contactor_idx_v_struct.o
LOAD build/contactor_msgs.o
LOAD build/ContactorStates.o
LOAD build/ContactorTask.o
LOAD build/ContactorUpdates.o
LOAD build/iir_filter_lx.o
LOAD build/adcextendsum.o
LOAD build/cic_filter_l_N2_M3.o
LOAD build/cic_computation.o
LOAD build/startup_stm32f103xb.o
LOAD /home/deh/launchpad/gcc-arm-none-eabi-5_4-2016q3/bin/../lib/gcc/arm-none-eabi/5.4.1/../../../../arm-none-eabi/lib/armv7-m/libc.a
LOAD /home/deh/launchpad/gcc-arm-none-eabi-5_4-2016q3/bin/../lib/gcc/arm-none-eabi/5.4.1/../../../../arm-none-eabi/lib/armv7-m/libm.a
LOAD /home/deh/launchpad/gcc-arm-none-eabi-5_4-2016q3/bin/../lib/gcc/arm-none-eabi/5.4.1/../../../../arm-none-eabi/lib/armv7-m/libnosys.a
START GROUP
LOAD /home/deh/launchpad/gcc-arm-none-eabi-5_4-2016q3/bin/../lib/gcc/arm-none-eabi/5.4.1/armv7-m/libgcc.a
LOAD /home/deh/launchpad/gcc-arm-none-eabi-5_4-2016q3/bin/../lib/gcc/arm-none-eabi/5.4.1/../../../../arm-none-eabi/lib/armv7-m/libc.a
END GROUP
LOAD /home/deh/launchpad/gcc-arm-none-eabi-5_4-2016q3/bin/../lib/gcc/arm-none-eabi/5.4.1/armv7-m/crtend.o
LOAD /home/deh/launchpad/gcc-arm-none-eabi-5_4-2016q3/bin/../lib/gcc/arm-none-eabi/5.4.1/armv7-m/crtn.o
                0x20005000                _estack = 0x20005000
                0x00000200                _Min_Heap_Size = 0x200
                0x00000400                _Min_Stack_Size = 0x400

.isr_vector     0x08000000      0x10c
                0x08000000                . = ALIGN (0x4)
 *(.isr_vector)
 .isr_vector    0x08000000      0x10c build/startup_stm32f103xb.o
                0x08000000                g_pfnVectors
                0x0800010c                . = ALIGN (0x4)

.text           0x08000110     0xe328
                0x08000110                . = ALIGN (0x4)
 *(.text)
 .text          0x08000110       0x5c /home/deh/launchpad/gcc-arm-none-eabi-5_4-2016q3/bin/../lib/gcc/arm-none-eabi/5.4.1/armv7-m/crtbegin.o
 .text          0x0800016c       0xec /home/deh/launchpad/gcc-arm-none-eabi-5_4-2016q3/bin/../lib/gcc/arm-none-eabi/5.4.1/../../../../arm-none-eabi/lib/armv7-m/libc.a(lib_a-memcpy.o)
                0x0800016c                memcpy
 .text          0x08000258      0x370 /home/deh/launchpad/gcc-arm-none-eabi-5_4-2016q3/bin/../lib/gcc/arm-none-eabi/5.4.1/armv7-m/libgcc.a(_arm_addsubdf3.o)
                0x08000258                __aeabi_drsub
                0x08000260                __aeabi_dsub
                0x08000260                __subdf3
                0x08000264                __adddf3
                0x08000264                __aeabi_dadd
                0x080004dc                __aeabi_ui2d
                0x080004dc                __floatunsidf
                0x080004fc                __floatsidf
                0x080004fc                __aeabi_i2d
                0x08000520                __extendsfdf2
                0x08000520                __aeabi_f2d
                0x0800055c                __aeabi_ul2d
                0x0800055c                __floatundidf
                0x0800056c                __floatdidf
                0x0800056c                __aeabi_l2d
 .text          0x080005c8      0x424 /home/deh/launchpad/gcc-arm-none-eabi-5_4-2016q3/bin/../lib/gcc/arm-none-eabi/5.4.1/armv7-m/libgcc.a(_arm_muldivdf3.o)
                0x080005c8                __aeabi_dmul
                0x080005c8                __muldf3
                0x0800081c                __aeabi_ddiv
                0x0800081c                __divdf3
 .text          0x080009ec      0x110 /home/deh/launchpad/gcc-arm-none-eabi-5_4-2016q3/bin/../lib/gcc/arm-none-eabi/5.4.1/armv7-m/libgcc.a(_arm_cmpdf2.o)
                0x080009ec                __gtdf2
                0x080009ec                __gedf2
                0x080009f4                __ltdf2
                0x080009f4                __ledf2
                0x080009fc                __cmpdf2
                0x080009fc                __eqdf2
                0x080009fc                __nedf2
                0x08000a78                __aeabi_cdrcmple
                0x08000a88                __aeabi_cdcmple
                0x08000a88                __aeabi_cdcmpeq
                0x08000a98                __aeabi_dcmpeq
                0x08000aac                __aeabi_dcmplt
                0x08000ac0                __aeabi_dcmple
                0x08000ad4                __aeabi_dcmpge
                0x08000ae8                __aeabi_dcmpgt
 .text          0x08000afc       0x2c /home/deh/launchpad/gcc-arm-none-eabi-5_4-2016q3/bin/../lib/gcc/arm-none-eabi/5.4.1/armv7-m/libgcc.a(_arm_unorddf2.o)
                0x08000afc                __aeabi_dcmpun
                0x08000afc                __unorddf2
 .text          0x08000b28       0x50 /home/deh/launchpad/gcc-arm-none-eabi-5_4-2016q3/bin/../lib/gcc/arm-none-eabi/5.4.1/armv7-m/libgcc.a(_arm_fixdfsi.o)
                0x08000b28                __fixdfsi
                0x08000b28                __aeabi_d2iz
 .text          0x08000b78       0x40 /home/deh/launchpad/gcc-arm-none-eabi-5_4-2016q3/bin/../lib/gcc/arm-none-eabi/5.4.1/armv7-m/libgcc.a(_arm_fixunsdfsi.o)
                0x08000b78                __fixunsdfsi
                0x08000b78                __aeabi_d2uiz
 .text          0x08000bb8       0xa0 /home/deh/launchpad/gcc-arm-none-eabi-5_4-2016q3/bin/../lib/gcc/arm-none-eabi/5.4.1/armv7-m/libgcc.a(_arm_truncdfsf2.o)
                0x08000bb8                __aeabi_d2f
                0x08000bb8                __truncdfsf2
 .text          0x08000c58      0x21c /home/deh/launchpad/gcc-arm-none-eabi-5_4-2016q3/bin/../lib/gcc/arm-none-eabi/5.4.1/armv7-m/libgcc.a(_arm_addsubsf3.o)
                0x08000c58                __aeabi_frsub
                0x08000c60                __subsf3
                0x08000c60                __aeabi_fsub
                0x08000c64                __aeabi_fadd
                0x08000c64                __addsf3
                0x08000dc4                __aeabi_ui2f
                0x08000dc4                __floatunsisf
                0x08000dcc                __aeabi_i2f
                0x08000dcc                __floatsisf
                0x08000de8                __floatundisf
                0x08000de8                __aeabi_ul2f
                0x08000df8                __floatdisf
                0x08000df8                __aeabi_l2f
 .text          0x08000e74       0x30 /home/deh/launchpad/gcc-arm-none-eabi-5_4-2016q3/bin/../lib/gcc/arm-none-eabi/5.4.1/armv7-m/libgcc.a(_aeabi_uldivmod.o)
                0x08000e74                __aeabi_uldivmod
 .text          0x08000ea4      0x2ec /home/deh/launchpad/gcc-arm-none-eabi-5_4-2016q3/bin/../lib/gcc/arm-none-eabi/5.4.1/armv7-m/libgcc.a(_udivmoddi4.o)
                0x08000ea4                __udivmoddi4
 .text          0x08001190        0x4 /home/deh/launchpad/gcc-arm-none-eabi-5_4-2016q3/bin/../lib/gcc/arm-none-eabi/5.4.1/armv7-m/libgcc.a(_dvmd_tls.o)
                0x08001190                __aeabi_ldiv0
                0x08001190                __aeabi_idiv0
 *(.text*)
 .text.MX_GPIO_Init
                0x08001194       0xcc build/main.o
 .text.MX_DMA_Init
                0x08001260       0x54 build/main.o
 *fill*         0x080012b4        0x4 
 .text.StartDefaultTask
                0x080012b8      0x5cc build/main.o
                0x080012b8                StartDefaultTask
 .text.HAL_TIM_PeriodElapsedCallback
                0x08001884       0x10 build/main.o
                0x08001884                HAL_TIM_PeriodElapsedCallback
 .text.Error_Handler
                0x08001894       0x10 build/main.o
                0x08001894                Error_Handler
 .text.MX_CAN_Init
                0x080018a4       0x50 build/main.o
 .text.MX_USART3_UART_Init
                0x080018f4       0x40 build/main.o
 .text.MX_USART1_UART_Init
                0x08001934       0x40 build/main.o
 .text.MX_ADC1_Init
                0x08001974       0xdc build/main.o
 .text.MX_TIM4_Init
                0x08001a50       0xb0 build/main.o
 .text.MX_TIM1_Init
                0x08001b00      0x110 build/main.o
 .text.MX_TIM3_Init
                0x08001c10       0xb4 build/main.o
 .text.SystemClock_Config
                0x08001cc4       0x84 build/main.o
                0x08001cc4                SystemClock_Config
 .text.main     0x08001d48      0x178 build/main.o
                0x08001d48                main
 .text.NMI_Handler
                0x08001ec0        0x4 build/stm32f1xx_it.o
                0x08001ec0                NMI_Handler
 .text.HardFault_Handler
                0x08001ec4        0x4 build/stm32f1xx_it.o
                0x08001ec4                HardFault_Handler
 .text.MemManage_Handler
                0x08001ec8        0x4 build/stm32f1xx_it.o
                0x08001ec8                MemManage_Handler
 .text.BusFault_Handler
                0x08001ecc        0x4 build/stm32f1xx_it.o
                0x08001ecc                BusFault_Handler
 .text.UsageFault_Handler
                0x08001ed0        0x4 build/stm32f1xx_it.o
                0x08001ed0                UsageFault_Handler
 .text.DebugMon_Handler
                0x08001ed4        0x4 build/stm32f1xx_it.o
                0x08001ed4                DebugMon_Handler
 .text.DMA1_Channel1_IRQHandler
                0x08001ed8       0x10 build/stm32f1xx_it.o
                0x08001ed8                DMA1_Channel1_IRQHandler
 .text.DMA1_Channel4_IRQHandler
                0x08001ee8       0x10 build/stm32f1xx_it.o
                0x08001ee8                DMA1_Channel4_IRQHandler
 .text.DMA1_Channel5_IRQHandler
                0x08001ef8       0x10 build/stm32f1xx_it.o
                0x08001ef8                DMA1_Channel5_IRQHandler
 .text.USB_HP_CAN1_TX_IRQHandler
                0x08001f08       0x10 build/stm32f1xx_it.o
                0x08001f08                USB_HP_CAN1_TX_IRQHandler
 .text.USB_LP_CAN1_RX0_IRQHandler
                0x08001f18       0x10 build/stm32f1xx_it.o
                0x08001f18                USB_LP_CAN1_RX0_IRQHandler
 .text.CAN1_RX1_IRQHandler
                0x08001f28       0x10 build/stm32f1xx_it.o
                0x08001f28                CAN1_RX1_IRQHandler
 .text.TIM2_IRQHandler
                0x08001f38       0x10 build/stm32f1xx_it.o
                0x08001f38                TIM2_IRQHandler
 .text.USART1_IRQHandler
                0x08001f48       0x10 build/stm32f1xx_it.o
                0x08001f48                USART1_IRQHandler
 .text.USART3_IRQHandler
                0x08001f58       0x10 build/stm32f1xx_it.o
                0x08001f58                USART3_IRQHandler
 .text.HAL_MspInit
                0x08001f68       0x54 build/stm32f1xx_hal_msp.o
                0x08001f68                HAL_MspInit
 .text.HAL_ADC_MspInit
                0x08001fbc       0x98 build/stm32f1xx_hal_msp.o
                0x08001fbc                HAL_ADC_MspInit
 .text.HAL_CAN_MspInit
                0x08002054       0xa4 build/stm32f1xx_hal_msp.o
                0x08002054                HAL_CAN_MspInit
 .text.HAL_TIM_Base_MspInit
                0x080020f8       0x6c build/stm32f1xx_hal_msp.o
                0x080020f8                HAL_TIM_Base_MspInit
 .text.HAL_TIM_MspPostInit
                0x08002164       0x98 build/stm32f1xx_hal_msp.o
                0x08002164                HAL_TIM_MspPostInit
 .text.HAL_UART_MspInit
                0x080021fc      0x160 build/stm32f1xx_hal_msp.o
                0x080021fc                HAL_UART_MspInit
 .text.TIM_OC1_SetConfig
                0x0800235c       0x58 build/stm32f1xx_hal_tim.o
 .text.TIM_OC3_SetConfig
                0x080023b4       0x60 build/stm32f1xx_hal_tim.o
 .text.TIM_OC4_SetConfig
                0x08002414       0x48 build/stm32f1xx_hal_tim.o
 .text.TIM_TI1_ConfigInputStage
                0x0800245c       0x24 build/stm32f1xx_hal_tim.o
 .text.TIM_TI2_ConfigInputStage
                0x08002480       0x28 build/stm32f1xx_hal_tim.o
 .text.TIM_ITRx_SetConfig
                0x080024a8       0x10 build/stm32f1xx_hal_tim.o
 .text.TIM_ETR_SetConfig
                0x080024b8       0x18 build/stm32f1xx_hal_tim.o
 .text.HAL_TIM_Base_Start_IT
                0x080024d0       0x18 build/stm32f1xx_hal_tim.o
                0x080024d0                HAL_TIM_Base_Start_IT
 .text.HAL_TIM_OC_MspInit
                0x080024e8        0x4 build/stm32f1xx_hal_tim.o
                0x080024e8                HAL_TIM_OC_MspInit
 .text.HAL_TIM_PWM_MspInit
                0x080024ec        0x4 build/stm32f1xx_hal_tim.o
                0x080024ec                HAL_TIM_PWM_MspInit
 .text.HAL_TIM_ConfigClockSource
                0x080024f0      0x114 build/stm32f1xx_hal_tim.o
                0x080024f0                HAL_TIM_ConfigClockSource
 .text.HAL_TIM_OC_DelayElapsedCallback
                0x08002604        0x4 build/stm32f1xx_hal_tim.o
                0x08002604                HAL_TIM_OC_DelayElapsedCallback
 .text.HAL_TIM_IC_CaptureCallback
                0x08002608        0x4 build/stm32f1xx_hal_tim.o
                0x08002608                HAL_TIM_IC_CaptureCallback
 .text.HAL_TIM_PWM_PulseFinishedCallback
                0x0800260c        0x4 build/stm32f1xx_hal_tim.o
                0x0800260c                HAL_TIM_PWM_PulseFinishedCallback
 .text.HAL_TIM_TriggerCallback
                0x08002610        0x4 build/stm32f1xx_hal_tim.o
                0x08002610                HAL_TIM_TriggerCallback
 .text.HAL_TIM_IRQHandler
                0x08002614      0x174 build/stm32f1xx_hal_tim.o
                0x08002614                HAL_TIM_IRQHandler
 .text.TIM_Base_SetConfig
                0x08002788       0x70 build/stm32f1xx_hal_tim.o
                0x08002788                TIM_Base_SetConfig
 .text.HAL_TIM_Base_Init
                0x080027f8       0x38 build/stm32f1xx_hal_tim.o
                0x080027f8                HAL_TIM_Base_Init
 .text.HAL_TIM_OC_Init
                0x08002830       0x38 build/stm32f1xx_hal_tim.o
                0x08002830                HAL_TIM_OC_Init
 .text.HAL_TIM_PWM_Init
                0x08002868       0x38 build/stm32f1xx_hal_tim.o
                0x08002868                HAL_TIM_PWM_Init
 .text.TIM_OC2_SetConfig
                0x080028a0       0x60 build/stm32f1xx_hal_tim.o
                0x080028a0                TIM_OC2_SetConfig
 .text.HAL_TIM_OC_ConfigChannel
                0x08002900       0x60 build/stm32f1xx_hal_tim.o
                0x08002900                HAL_TIM_OC_ConfigChannel
 .text.HAL_TIM_PWM_ConfigChannel
                0x08002960       0xdc build/stm32f1xx_hal_tim.o
                0x08002960                HAL_TIM_PWM_ConfigChannel
 .text.TIM_CCxChannelCmd
                0x08002a3c       0x1c build/stm32f1xx_hal_tim.o
                0x08002a3c                TIM_CCxChannelCmd
 .text.HAL_TIM_PWM_Start
                0x08002a58       0x30 build/stm32f1xx_hal_tim.o
                0x08002a58                HAL_TIM_PWM_Start
 .text.HAL_TIMEx_ConfigBreakDeadTime
                0x08002a88       0x58 build/stm32f1xx_hal_tim_ex.o
                0x08002a88                HAL_TIMEx_ConfigBreakDeadTime
 .text.HAL_TIMEx_MasterConfigSynchronization
                0x08002ae0       0x54 build/stm32f1xx_hal_tim_ex.o
                0x08002ae0                HAL_TIMEx_MasterConfigSynchronization
 .text.HAL_TIMEx_CommutationCallback
                0x08002b34        0x4 build/stm32f1xx_hal_tim_ex.o
                0x08002b34                HAL_TIMEx_CommutationCallback
 .text.HAL_TIMEx_BreakCallback
                0x08002b38        0x4 build/stm32f1xx_hal_tim_ex.o
                0x08002b38                HAL_TIMEx_BreakCallback
 .text.HAL_Init
                0x08002b3c       0x24 build/stm32f1xx_hal.o
                0x08002b3c                HAL_Init
 .text.HAL_IncTick
                0x08002b60       0x18 build/stm32f1xx_hal.o
                0x08002b60                HAL_IncTick
 .text.HAL_GetTick
                0x08002b78        0xc build/stm32f1xx_hal.o
                0x08002b78                HAL_GetTick
 .text.RCC_Delay
                0x08002b84       0x2c build/stm32f1xx_hal_rcc.o
 .text.HAL_RCC_OscConfig
                0x08002bb0      0x400 build/stm32f1xx_hal_rcc.o
                0x08002bb0                HAL_RCC_OscConfig
 .text.HAL_RCC_GetSysClockFreq
                0x08002fb0       0x70 build/stm32f1xx_hal_rcc.o
                0x08002fb0                HAL_RCC_GetSysClockFreq
 .text.HAL_RCC_ClockConfig
                0x08003020      0x1a8 build/stm32f1xx_hal_rcc.o
                0x08003020                HAL_RCC_ClockConfig
 .text.HAL_RCC_GetHCLKFreq
                0x080031c8        0xc build/stm32f1xx_hal_rcc.o
                0x080031c8                HAL_RCC_GetHCLKFreq
 .text.HAL_RCC_GetPCLK1Freq
                0x080031d4       0x20 build/stm32f1xx_hal_rcc.o
                0x080031d4                HAL_RCC_GetPCLK1Freq
 .text.HAL_RCC_GetPCLK2Freq
                0x080031f4       0x20 build/stm32f1xx_hal_rcc.o
                0x080031f4                HAL_RCC_GetPCLK2Freq
 .text.HAL_RCC_GetClockConfig
                0x08003214       0x3c build/stm32f1xx_hal_rcc.o
                0x08003214                HAL_RCC_GetClockConfig
 .text.HAL_RCCEx_PeriphCLKConfig
                0x08003250      0x114 build/stm32f1xx_hal_rcc_ex.o
                0x08003250                HAL_RCCEx_PeriphCLKConfig
 .text.HAL_RCCEx_GetPeriphCLKFreq
                0x08003364      0x108 build/stm32f1xx_hal_rcc_ex.o
                0x08003364                HAL_RCCEx_GetPeriphCLKFreq
 .text.HAL_GPIO_Init
                0x0800346c      0x1d8 build/stm32f1xx_hal_gpio.o
                0x0800346c                HAL_GPIO_Init
 .text.HAL_GPIO_ReadPin
                0x08003644       0x10 build/stm32f1xx_hal_gpio.o
                0x08003644                HAL_GPIO_ReadPin
 .text.HAL_GPIO_WritePin
                0x08003654        0xc build/stm32f1xx_hal_gpio.o
                0x08003654                HAL_GPIO_WritePin
 .text.HAL_GPIO_TogglePin
                0x08003660        0x8 build/stm32f1xx_hal_gpio.o
                0x08003660                HAL_GPIO_TogglePin
 .text.DMA_SetConfig
                0x08003668       0x2c build/stm32f1xx_hal_dma.o
 .text.HAL_DMA_Init
                0x08003694       0x70 build/stm32f1xx_hal_dma.o
                0x08003694                HAL_DMA_Init
 .text.HAL_DMA_Start_IT
                0x08003704       0x74 build/stm32f1xx_hal_dma.o
                0x08003704                HAL_DMA_Start_IT
 .text.HAL_DMA_Abort_IT
                0x08003778       0x98 build/stm32f1xx_hal_dma.o
                0x08003778                HAL_DMA_Abort_IT
 .text.HAL_DMA_IRQHandler
                0x08003810      0x144 build/stm32f1xx_hal_dma.o
                0x08003810                HAL_DMA_IRQHandler
 .text.HAL_NVIC_SetPriorityGrouping
                0x08003954       0x24 build/stm32f1xx_hal_cortex.o
                0x08003954                HAL_NVIC_SetPriorityGrouping
 .text.HAL_NVIC_SetPriority
                0x08003978       0x64 build/stm32f1xx_hal_cortex.o
                0x08003978                HAL_NVIC_SetPriority
 .text.HAL_NVIC_EnableIRQ
                0x080039dc       0x18 build/stm32f1xx_hal_cortex.o
                0x080039dc                HAL_NVIC_EnableIRQ
 .text.SystemInit
                0x080039f4       0x4c build/system_stm32f1xx.o
                0x080039f4                SystemInit
 .text.vApplicationStackOverflowHook
                0x08003a40        0x4 build/freertos.o
                0x08003a40                vApplicationStackOverflowHook
 .text.vApplicationGetIdleTaskMemory
                0x08003a44       0x18 build/freertos.o
                0x08003a44                vApplicationGetIdleTaskMemory
 .text.vApplicationGetTimerTaskMemory
                0x08003a5c       0x18 build/freertos.o
                0x08003a5c                vApplicationGetTimerTaskMemory
 .text.HAL_InitTick
                0x08003a74       0x78 build/stm32f1xx_hal_timebase_tim.o
                0x08003a74                HAL_InitTick
 .text.ADC_DMAConvCplt
                0x08003aec       0x50 build/stm32f1xx_hal_adc.o
                0x08003aec                ADC_DMAConvCplt
 .text.ADC_DMAHalfConvCplt
                0x08003b3c        0xc build/stm32f1xx_hal_adc.o
                0x08003b3c                ADC_DMAHalfConvCplt
 .text.HAL_ADC_ErrorCallback
                0x08003b48        0x4 build/stm32f1xx_hal_adc.o
                0x08003b48                HAL_ADC_ErrorCallback
 .text.ADC_DMAError
                0x08003b4c       0x1c build/stm32f1xx_hal_adc.o
                0x08003b4c                ADC_DMAError
 .text.HAL_ADC_ConfigChannel
                0x08003b68      0x138 build/stm32f1xx_hal_adc.o
                0x08003b68                HAL_ADC_ConfigChannel
 .text.ADC_Enable
                0x08003ca0       0x80 build/stm32f1xx_hal_adc.o
                0x08003ca0                ADC_Enable
 .text.HAL_ADC_Start_DMA
                0x08003d20      0x144 build/stm32f1xx_hal_adc.o
                0x08003d20                HAL_ADC_Start_DMA
 .text.ADC_ConversionStop_Disable
                0x08003e64       0x50 build/stm32f1xx_hal_adc.o
                0x08003e64                ADC_ConversionStop_Disable
 .text.HAL_ADC_Init
                0x08003eb4      0x10c build/stm32f1xx_hal_adc.o
                0x08003eb4                HAL_ADC_Init
 .text.HAL_ADCEx_Calibration_Start
                0x08003fc0       0xf0 build/stm32f1xx_hal_adc_ex.o
                0x08003fc0                HAL_ADCEx_Calibration_Start
 .text.HAL_CAN_Init
                0x080040b0      0x154 build/stm32f1xx_hal_can.o
                0x080040b0                HAL_CAN_Init
 .text.HAL_CAN_ConfigFilter
                0x08004204       0xfc build/stm32f1xx_hal_can.o
                0x08004204                HAL_CAN_ConfigFilter
 .text.HAL_CAN_Start
                0x08004300       0x60 build/stm32f1xx_hal_can.o
                0x08004300                HAL_CAN_Start
 .text.HAL_CAN_AddTxMessage
                0x08004360       0xe8 build/stm32f1xx_hal_can.o
                0x08004360                HAL_CAN_AddTxMessage
 .text.HAL_CAN_AbortTxRequest
                0x08004448       0x50 build/stm32f1xx_hal_can.o
                0x08004448                HAL_CAN_AbortTxRequest
 .text.HAL_CAN_GetRxMessage
                0x08004498      0x134 build/stm32f1xx_hal_can.o
                0x08004498                HAL_CAN_GetRxMessage
 .text.HAL_CAN_ActivateNotification
                0x080045cc       0x24 build/stm32f1xx_hal_can.o
                0x080045cc                HAL_CAN_ActivateNotification
 .text.HAL_CAN_TxMailbox1CompleteCallback
                0x080045f0        0x4 build/stm32f1xx_hal_can.o
                0x080045f0                HAL_CAN_TxMailbox1CompleteCallback
 .text.HAL_CAN_TxMailbox2CompleteCallback
                0x080045f4        0x4 build/stm32f1xx_hal_can.o
                0x080045f4                HAL_CAN_TxMailbox2CompleteCallback
 .text.HAL_CAN_TxMailbox1AbortCallback
                0x080045f8        0x4 build/stm32f1xx_hal_can.o
                0x080045f8                HAL_CAN_TxMailbox1AbortCallback
 .text.HAL_CAN_TxMailbox2AbortCallback
                0x080045fc        0x4 build/stm32f1xx_hal_can.o
                0x080045fc                HAL_CAN_TxMailbox2AbortCallback
 .text.HAL_CAN_RxFifo0FullCallback
                0x08004600        0x4 build/stm32f1xx_hal_can.o
                0x08004600                HAL_CAN_RxFifo0FullCallback
 .text.HAL_CAN_RxFifo1FullCallback
                0x08004604        0x4 build/stm32f1xx_hal_can.o
                0x08004604                HAL_CAN_RxFifo1FullCallback
 .text.HAL_CAN_SleepCallback
                0x08004608        0x4 build/stm32f1xx_hal_can.o
                0x08004608                HAL_CAN_SleepCallback
 .text.HAL_CAN_WakeUpFromRxMsgCallback
                0x0800460c        0x4 build/stm32f1xx_hal_can.o
                0x0800460c                HAL_CAN_WakeUpFromRxMsgCallback
 .text.HAL_CAN_IRQHandler
                0x08004610      0x250 build/stm32f1xx_hal_can.o
                0x08004610                HAL_CAN_IRQHandler
 .text.UART_EndTxTransfer
                0x08004860       0x14 build/stm32f1xx_hal_uart.o
 .text.UART_EndRxTransfer
                0x08004874       0x1c build/stm32f1xx_hal_uart.o
 .text.UART_Transmit_IT
                0x08004890       0x6c build/stm32f1xx_hal_uart.o
 .text.UART_SetConfig
                0x080048fc      0x1bc build/stm32f1xx_hal_uart.o
 .text.HAL_UART_Init
                0x08004ab8       0x64 build/stm32f1xx_hal_uart.o
                0x08004ab8                HAL_UART_Init
 .text.HAL_UART_Transmit_IT
                0x08004b1c       0x48 build/stm32f1xx_hal_uart.o
                0x08004b1c                HAL_UART_Transmit_IT
 .text.HAL_UART_Receive_IT
                0x08004b64       0x5c build/stm32f1xx_hal_uart.o
                0x08004b64                HAL_UART_Receive_IT
 .text.HAL_UART_Transmit_DMA
                0x08004bc0       0x8c build/stm32f1xx_hal_uart.o
                0x08004bc0                HAL_UART_Transmit_DMA
 .text.HAL_UART_Receive_DMA
                0x08004c4c       0xa8 build/stm32f1xx_hal_uart.o
                0x08004c4c                HAL_UART_Receive_DMA
 .text.UART_DMATransmitCplt
                0x08004cf4       0x30 build/stm32f1xx_hal_uart.o
 .text.UART_EndTransmit_IT
                0x08004d24       0x1c build/stm32f1xx_hal_uart.o
 .text.HAL_UART_TxHalfCpltCallback
                0x08004d40        0x4 build/stm32f1xx_hal_uart.o
                0x08004d40                HAL_UART_TxHalfCpltCallback
 .text.UART_DMATxHalfCplt
                0x08004d44        0xc build/stm32f1xx_hal_uart.o
 .text.UART_DMAReceiveCplt
                0x08004d50       0x40 build/stm32f1xx_hal_uart.o
 .text.UART_Receive_IT
                0x08004d90       0xa0 build/stm32f1xx_hal_uart.o
 .text.UART_DMARxHalfCplt
                0x08004e30        0xc build/stm32f1xx_hal_uart.o
 .text.UART_DMAError
                0x08004e3c       0x50 build/stm32f1xx_hal_uart.o
 .text.HAL_UART_IRQHandler
                0x08004e8c      0x11c build/stm32f1xx_hal_uart.o
                0x08004e8c                HAL_UART_IRQHandler
 .text.UART_DMAAbortOnError
                0x08004fa8       0x10 build/stm32f1xx_hal_uart.o
 .text.vListInitialise
                0x08004fb8       0x18 build/list.o
                0x08004fb8                vListInitialise
 .text.vListInitialiseItem
                0x08004fd0        0x8 build/list.o
                0x08004fd0                vListInitialiseItem
 .text.vListInsertEnd
                0x08004fd8       0x18 build/list.o
                0x08004fd8                vListInsertEnd
 .text.vListInsert
                0x08004ff0       0x34 build/list.o
                0x08004ff0                vListInsert
 .text.uxListRemove
                0x08005024       0x24 build/list.o
                0x08005024                uxListRemove
 .text.prvIsQueueFull
                0x08005048       0x20 build/queue.o
 .text.prvIsQueueEmpty
                0x08005068       0x1c build/queue.o
 .text.prvCopyDataToQueue
                0x08005084       0x78 build/queue.o
 .text.prvCopyDataFromQueue
                0x080050fc       0x24 build/queue.o
 .text.prvUnlockQueue
                0x08005120       0x68 build/queue.o
 .text.xQueueGenericReset
                0x08005188       0x80 build/queue.o
                0x08005188                xQueueGenericReset
 .text.prvInitialiseNewQueue
                0x08005208       0x1c build/queue.o
 .text.xQueueGenericCreateStatic
                0x08005224       0xac build/queue.o
                0x08005224                xQueueGenericCreateStatic
 .text.xQueueGenericCreate
                0x080052d0       0x50 build/queue.o
                0x080052d0                xQueueGenericCreate
 .text.xQueueGenericSend
                0x08005320      0x190 build/queue.o
                0x08005320                xQueueGenericSend
 .text.xQueueGenericSendFromISR
                0x080054b0       0xe4 build/queue.o
                0x080054b0                xQueueGenericSendFromISR
 .text.xQueueGiveFromISR
                0x08005594       0xbc build/queue.o
                0x08005594                xQueueGiveFromISR
 .text.xQueueGenericReceive
                0x08005650      0x1a0 build/queue.o
                0x08005650                xQueueGenericReceive
 .text.vQueueAddToRegistry
                0x080057f0       0x28 build/queue.o
                0x080057f0                vQueueAddToRegistry
 .text.vQueueWaitForMessageRestricted
                0x08005818       0x4c build/queue.o
                0x08005818                vQueueWaitForMessageRestricted
 .text.prvTaskCheckFreeStackSpace
                0x08005864       0x14 build/tasks.o
 .text.prvResetNextTaskUnblockTime
                0x08005878       0x34 build/tasks.o
 .text.prvInitialiseNewTask
                0x080058ac       0x90 build/tasks.o
 .text.prvInitialiseTaskLists
                0x0800593c       0x68 build/tasks.o
 .text.prvAddNewTaskToReadyList
                0x080059a4       0xa8 build/tasks.o
 .text.prvDeleteTCB
                0x08005a4c       0x3c build/tasks.o
 .text.prvAddCurrentTaskToDelayedList
                0x08005a88       0x98 build/tasks.o
 .text.xTaskCreateStatic
                0x08005b20       0x60 build/tasks.o
                0x08005b20                xTaskCreateStatic
 .text.xTaskCreate
                0x08005b80       0x68 build/tasks.o
                0x08005b80                xTaskCreate
 .text.vTaskPrioritySet
                0x08005be8       0xf0 build/tasks.o
                0x08005be8                vTaskPrioritySet
 .text.vTaskStartScheduler
                0x08005cd8       0x98 build/tasks.o
                0x08005cd8                vTaskStartScheduler
 .text.vTaskSuspendAll
                0x08005d70       0x10 build/tasks.o
                0x08005d70                vTaskSuspendAll
 .text.xTaskGetTickCount
                0x08005d80        0xc build/tasks.o
                0x08005d80                xTaskGetTickCount
 .text.xTaskIncrementTick
                0x08005d8c      0x124 build/tasks.o
                0x08005d8c                xTaskIncrementTick
 .text.xTaskResumeAll
                0x08005eb0       0xf8 build/tasks.o
                0x08005eb0                xTaskResumeAll
 .text.vTaskDelay
                0x08005fa8       0x50 build/tasks.o
                0x08005fa8                vTaskDelay
 .text.prvCheckTasksWaitingTermination
                0x08005ff8       0x54 build/tasks.o
 .text.prvIdleTask
                0x0800604c       0x28 build/tasks.o
 .text.vTaskSwitchContext
                0x08006074       0xc4 build/tasks.o
                0x08006074                vTaskSwitchContext
 .text.vTaskSuspend
                0x08006138       0xd4 build/tasks.o
                0x08006138                vTaskSuspend
 .text.vTaskPlaceOnEventList
                0x0800620c       0x30 build/tasks.o
                0x0800620c                vTaskPlaceOnEventList
 .text.vTaskPlaceOnEventListRestricted
                0x0800623c       0x38 build/tasks.o
                0x0800623c                vTaskPlaceOnEventListRestricted
 .text.xTaskRemoveFromEventList
                0x08006274       0x8c build/tasks.o
                0x08006274                xTaskRemoveFromEventList
 .text.vTaskSetTimeOutState
                0x08006300       0x2c build/tasks.o
                0x08006300                vTaskSetTimeOutState
 .text.xTaskCheckForTimeOut
                0x0800632c       0x80 build/tasks.o
                0x0800632c                xTaskCheckForTimeOut
 .text.vTaskMissedYield
                0x080063ac        0xc build/tasks.o
                0x080063ac                vTaskMissedYield
 .text.uxTaskGetStackHighWaterMark
                0x080063b8       0x18 build/tasks.o
                0x080063b8                uxTaskGetStackHighWaterMark
 .text.xTaskGetCurrentTaskHandle
                0x080063d0        0xc build/tasks.o
                0x080063d0                xTaskGetCurrentTaskHandle
 .text.xTaskGetSchedulerState
                0x080063dc       0x20 build/tasks.o
                0x080063dc                xTaskGetSchedulerState
 .text.vTaskPriorityInherit
                0x080063fc       0xa8 build/tasks.o
                0x080063fc                vTaskPriorityInherit
 .text.xTaskPriorityDisinherit
                0x080064a4       0xb4 build/tasks.o
                0x080064a4                xTaskPriorityDisinherit
 .text.pvTaskIncrementMutexHeldCount
                0x08006558       0x1c build/tasks.o
                0x08006558                pvTaskIncrementMutexHeldCount
 .text.xTaskNotifyWait
                0x08006574       0x98 build/tasks.o
                0x08006574                xTaskNotifyWait
 .text.xTaskGenericNotify
                0x0800660c       0xe4 build/tasks.o
                0x0800660c                xTaskGenericNotify
 .text.xTaskGenericNotifyFromISR
                0x080066f0      0x124 build/tasks.o
                0x080066f0                xTaskGenericNotifyFromISR
 .text.prvGetNextExpireTime
                0x08006814       0x20 build/timers.o
 .text.prvInsertTimerInActiveList
                0x08006834       0x48 build/timers.o
 .text.prvCheckForValidListAndQueue
                0x0800687c       0x6c build/timers.o
 .text.prvInitialiseNewTimer
                0x080068e8       0x40 build/timers.o
 .text.xTimerCreateTimerTask
                0x08006928       0x70 build/timers.o
                0x08006928                xTimerCreateTimerTask
 .text.xTimerCreate
                0x08006998       0x38 build/timers.o
                0x08006998                xTimerCreate
 .text.xTimerGenericCommand
                0x080069d0       0x6c build/timers.o
                0x080069d0                xTimerGenericCommand
 .text.prvSwitchTimerLists
                0x08006a3c       0x7c build/timers.o
 .text.prvSampleTimeNow
                0x08006ab8       0x2c build/timers.o
 .text.prvProcessExpiredTimer
                0x08006ae4       0x5c build/timers.o
 .text.prvProcessTimerOrBlockTask
                0x08006b40       0x74 build/timers.o
 .text.prvProcessReceivedCommands
                0x08006bb4       0xc4 build/timers.o
 .text.prvTimerTask
                0x08006c78       0x18 build/timers.o
 .text.makeFreeRtosPriority
                0x08006c90        0xc build/cmsis_os.o
 .text.osKernelStart
                0x08006c9c        0xc build/cmsis_os.o
                0x08006c9c                osKernelStart
 .text.osThreadCreate
                0x08006ca8       0x6c build/cmsis_os.o
                0x08006ca8                osThreadCreate
 .text.osDelay  0x08006d14       0x10 build/cmsis_os.o
                0x08006d14                osDelay
 .text.osSemaphoreCreate
                0x08006d24       0x48 build/cmsis_os.o
                0x08006d24                osSemaphoreCreate
 .text.prvHeapInit
                0x08006d6c       0x64 build/heap_4.o
 .text.prvInsertBlockIntoFreeList
                0x08006dd0       0x54 build/heap_4.o
 .text.pvPortMalloc
                0x08006e24      0x104 build/heap_4.o
                0x08006e24                pvPortMalloc
 .text.vPortFree
                0x08006f28       0x78 build/heap_4.o
                0x08006f28                vPortFree
 .text.xPortGetFreeHeapSize
                0x08006fa0        0xc build/heap_4.o
                0x08006fa0                xPortGetFreeHeapSize
 .text.prvTaskExitError
                0x08006fac       0x34 build/port.o
 .text.prvPortStartFirstTask
                0x08006fe0       0x20 build/port.o
 .text.pxPortInitialiseStack
                0x08007000       0x24 build/port.o
                0x08007000                pxPortInitialiseStack
 *fill*         0x08007024        0xc 
 .text.SVC_Handler
                0x08007030       0x24 build/port.o
                0x08007030                SVC_Handler
 .text.vPortEnterCritical
                0x08007054       0x44 build/port.o
                0x08007054                vPortEnterCritical
 .text.vPortExitCritical
                0x08007098       0x2c build/port.o
                0x08007098                vPortExitCritical
 *fill*         0x080070c4        0xc 
 .text.PendSV_Handler
                0x080070d0       0x44 build/port.o
                0x080070d0                PendSV_Handler
 .text.SysTick_Handler
                0x08007114       0x2c build/port.o
                0x08007114                SysTick_Handler
 .text.vPortSetupTimerInterrupt
                0x08007140       0x2c build/port.o
                0x08007140                vPortSetupTimerInterrupt
 .text.xPortStartScheduler
                0x0800716c       0x98 build/port.o
                0x0800716c                xPortStartScheduler
 .text.vPortValidateInterruptPriority
                0x08007204       0x5c build/port.o
                0x08007204                vPortValidateInterruptPriority
 .text.StartSerialTaskSend
                0x08007260       0x8c build/SerialTaskSend.o
                0x08007260                StartSerialTaskSend
 .text.xSerialTaskSendAdd
                0x080072ec       0x6c build/SerialTaskSend.o
                0x080072ec                xSerialTaskSendAdd
 .text.xSerialTaskSendCreate
                0x08007358       0x48 build/SerialTaskSend.o
                0x08007358                xSerialTaskSendCreate
 .text.HAL_UART_TxCpltCallback
                0x080073a0       0x78 build/SerialTaskSend.o
                0x080073a0                HAL_UART_TxCpltCallback
 .text.vSerialTaskSendQueueBuf
                0x08007418       0x28 build/SerialTaskSend.o
                0x08007418                vSerialTaskSendQueueBuf
 .text.DTW_counter_init
                0x08007440       0x20 build/DTW_counter.o
                0x08007440                DTW_counter_init
 .text.StartCanTxTask
                0x08007460       0x64 build/CanTask.o
                0x08007460                StartCanTxTask
 .text.StartCanRxTask
                0x080074c4       0x14 build/CanTask.o
                0x080074c4                StartCanRxTask
 .text.xCanTxTaskCreate
                0x080074d8       0x48 build/CanTask.o
                0x080074d8                xCanTxTaskCreate
 .text.canmsg_compress
                0x08007520       0x4c build/can_iface.o
 .text.moveremove2
                0x0800756c       0x14 build/can_iface.o
 .text.loadmbx2
                0x08007580       0x54 build/can_iface.o
 .text.can_iface_add_take
                0x080075d4       0x30 build/can_iface.o
                0x080075d4                can_iface_add_take
 .text.can_iface_mbx_init
                0x08007604       0x1c build/can_iface.o
                0x08007604                can_iface_mbx_init
 .text.can_iface_get_CANmsg
                0x08007620       0x28 build/can_iface.o
                0x08007620                can_iface_get_CANmsg
 .text.can_iface_init
                0x08007648       0xfc build/can_iface.o
                0x08007648                can_iface_init
 .text.can_driver_put
                0x08007744       0xe0 build/can_iface.o
                0x08007744                can_driver_put
 .text.getpctl  0x08007824       0x24 build/can_iface.o
                0x08007824                getpctl
 .text.unloadfifo
                0x08007848       0x98 build/can_iface.o
 .text.HAL_CAN_TxMailbox0CompleteCallback
                0x080078e0       0x80 build/can_iface.o
                0x080078e0                HAL_CAN_TxMailbox0CompleteCallback
 .text.HAL_CAN_TxMailbox0AbortCallback
                0x08007960       0x14 build/can_iface.o
                0x08007960                HAL_CAN_TxMailbox0AbortCallback
 .text.HAL_CAN_ErrorCallback
                0x08007974       0x70 build/can_iface.o
                0x08007974                HAL_CAN_ErrorCallback
 .text.HAL_CAN_RxFifo0MsgPendingCallback
                0x080079e4        0xc build/can_iface.o
                0x080079e4                HAL_CAN_RxFifo0MsgPendingCallback
 .text.HAL_CAN_RxFifo1MsgPendingCallback
                0x080079f0        0xc build/can_iface.o
                0x080079f0                HAL_CAN_RxFifo1MsgPendingCallback
 .text.canfilter_setup_first
                0x080079fc       0x60 build/canfilter_setup.o
                0x080079fc                canfilter_setup_first
 .text.canfilter_setup_add32b_id
                0x08007a5c       0xc0 build/canfilter_setup.o
                0x08007a5c                canfilter_setup_add32b_id
 .text.getserialbuf
                0x08007b1c       0x64 build/getserialbuf.o
                0x08007b1c                getserialbuf
 .text.yprintf_init
                0x08007b80       0x3c build/yprintf.o
                0x08007b80                yprintf_init
 .text.yprintf  0x08007bbc       0x78 build/yprintf.o
                0x08007bbc                yprintf
 .text.advancebuf
                0x08007c34       0x58 build/SerialTaskReceive.o
 .text.advanceptr
                0x08007c8c       0x24 build/SerialTaskReceive.o
 .text.unloaddma
                0x08007cb0       0x40 build/SerialTaskReceive.o
 .text.StartSerialTaskReceive
                0x08007cf0       0x4c build/SerialTaskReceive.o
                0x08007cf0                StartSerialTaskReceive
 .text.xSerialTaskRxAdduart
                0x08007d3c      0x120 build/SerialTaskReceive.o
                0x08007d3c                xSerialTaskRxAdduart
 .text.xSerialTaskReceiveCreate
                0x08007e5c       0x34 build/SerialTaskReceive.o
                0x08007e5c                xSerialTaskReceiveCreate
 .text.xSerialTaskReceiveGetline
                0x08007e90       0x20 build/SerialTaskReceive.o
                0x08007e90                xSerialTaskReceiveGetline
 .text.HAL_UART_RxCpltCallback
                0x08007eb0       0x6c build/SerialTaskReceive.o
                0x08007eb0                HAL_UART_RxCpltCallback
 .text.HAL_UART_RxHalfCpltCallback
                0x08007f1c        0x8 build/SerialTaskReceive.o
                0x08007f1c                HAL_UART_RxHalfCpltCallback
 .text.HAL_UART_ErrorCallback
                0x08007f24       0x1c build/SerialTaskReceive.o
                0x08007f24                HAL_UART_ErrorCallback
 .text.delay    0x08007f40       0x2c build/morse.o
 .text.morse_generate
                0x08007f6c       0x68 build/morse.o
 .text.morse_number
                0x08007fd4       0x50 build/morse.o
                0x08007fd4                morse_number
 .text.morse_trap
                0x08008024       0x1c build/morse.o
                0x08008024                morse_trap
 .text.payload_extract
                0x08008040      0x134 build/payload_extract.o
                0x08008040                payload_extract
 .text.lookup   0x08008174       0x38 build/MailboxTask.o
 .text.loadmbx  0x080081ac       0x50 build/MailboxTask.o
 .text.StartMailboxTask
                0x080081fc       0x94 build/MailboxTask.o
                0x080081fc                StartMailboxTask
 .text.MailboxTask_add_CANlist
                0x08008290       0xac build/MailboxTask.o
                0x08008290                MailboxTask_add_CANlist
 .text.MailboxTask_add
                0x0800833c      0x1b0 build/MailboxTask.o
                0x0800833c                MailboxTask_add
 .text.xMailboxTaskCreate
                0x080084ec       0x38 build/MailboxTask.o
                0x080084ec                xMailboxTaskCreate
 .text.adctask_init
                0x08008524       0x7c build/adctask.o
                0x08008524                adctask_init
 .text.HAL_ADC_ConvHalfCpltCallback
                0x080085a0       0x40 build/adctask.o
                0x080085a0                HAL_ADC_ConvHalfCpltCallback
 .text.HAL_ADC_ConvCpltCallback
                0x080085e0       0x40 build/adctask.o
                0x080085e0                HAL_ADC_ConvCpltCallback
 .text.StartADCTask
                0x08008620       0xc8 build/ADCTask.o
                0x08008620                StartADCTask
 .text.xADCTaskCreate
                0x080086e8       0x38 build/ADCTask.o
                0x080086e8                xADCTaskCreate
 .text.stackwatermark_show
                0x08008720       0x1c build/stackwatermark.o
                0x08008720                stackwatermark_show
 .text.adcfastsum16
                0x0800873c       0x98 build/adcfastsum16.o
                0x0800873c                adcfastsum16
 *fill*         0x080087d4        0x4 
 .text.adc_idx_v_struct_hardcode_params
                0x080087d8      0x120 build/adc_idx_v_struct.o
                0x080087d8                adc_idx_v_struct_hardcode_params
 .text.internal
                0x080088f8       0x78 build/adcparams.o
 .text.absolute
                0x08008970       0x2c build/adcparams.o
 .text.ratiometric5v
                0x0800899c       0x48 build/adcparams.o
 .text.adcparams_init
                0x080089e4       0x18 build/adcparams.o
                0x080089e4                adcparams_init
 .text.adcparams_cal
                0x080089fc       0x34 build/adcparams.o
                0x080089fc                adcparams_cal
 .text.ratiometric_cal_zero
                0x08008a30       0xb4 build/adcparamsinit.o
 .text.ratiometric_cal
                0x08008ae4       0x78 build/adcparamsinit.o
 *fill*         0x08008b5c        0x4 
 .text.adcparamsinit_init
                0x08008b60      0x280 build/adcparamsinit.o
                0x08008b60                adcparamsinit_init
 .text.ratiometric_cal_zero_CURRENTTOTAL
                0x08008de0       0x10 build/adcparamsinit.o
                0x08008de0                ratiometric_cal_zero_CURRENTTOTAL
 .text.load4    0x08008df0       0x10 build/contactor_cmd_msg.o
 .text.loadadc  0x08008e00       0x3c build/contactor_cmd_msg.o
 .text.loadhv   0x08008e3c       0x50 build/contactor_cmd_msg.o
 .text.contactor_cmd_msg_i
                0x08008e8c      0x1b8 build/contactor_cmd_msg.o
                0x08008e8c                contactor_cmd_msg_i
 .text.ContactorEvents_00
                0x08009044       0x10 build/ContactorEvents.o
                0x08009044                ContactorEvents_00
 .text.ContactorEvents_01
                0x08009054       0x54 build/ContactorEvents.o
                0x08009054                ContactorEvents_01
 .text.ContactorEvents_03
                0x080090a8       0x20 build/ContactorEvents.o
                0x080090a8                ContactorEvents_03
 .text.ContactorEvents_04
                0x080090c8       0x38 build/ContactorEvents.o
                0x080090c8                ContactorEvents_04
 .text.ContactorEvents_05
                0x08009100       0x10 build/ContactorEvents.o
                0x08009100                ContactorEvents_05
 .text.ContactorEvents_06
                0x08009110        0x8 build/ContactorEvents.o
                0x08009110                ContactorEvents_06
 .text.ContactorEvents_07
                0x08009118       0x8c build/ContactorEvents.o
                0x08009118                ContactorEvents_07
 .text.ContactorEvents_08
                0x080091a4       0x34 build/ContactorEvents.o
                0x080091a4                ContactorEvents_08
 .text.contactor_func_init_init
                0x080091d8      0x314 build/contactor_func_init.o
                0x080091d8                contactor_func_init_init
 .text.contactor_func_init_canfilter
                0x080094ec       0x54 build/contactor_func_init.o
                0x080094ec                contactor_func_init_canfilter
 .text.contactor_hv_uartline
                0x08009540       0x58 build/contactor_hv.o
                0x08009540                contactor_hv_uartline
 .text.contactor_hv_calibrate
                0x08009598       0x28 build/contactor_hv.o
                0x08009598                contactor_hv_calibrate
 .text.contactor_idx_v_struct_hardcode_params
                0x080095c0      0x12c build/contactor_idx_v_struct.o
                0x080095c0                contactor_idx_v_struct_hardcode_params
 .text.load4    0x080096ec       0x10 build/contactor_msgs.o
 .text.hvpayload
                0x080096fc       0x58 build/contactor_msgs.o
 .text.contactor_msg1
                0x08009754       0x80 build/contactor_msgs.o
                0x08009754                contactor_msg1
 .text.contactor_msg2
                0x080097d4       0x4c build/contactor_msgs.o
                0x080097d4                contactor_msg2
 .text.contactor_msg_ka
                0x08009820       0x60 build/contactor_msgs.o
                0x08009820                contactor_msg_ka
 .text.new_state
                0x08009880       0x24 build/ContactorStates.o
 .text.open_contactors
                0x080098a4       0x8c build/ContactorStates.o
 .text.transition_disconnecting
                0x08009930       0x14 build/ContactorStates.o
 .text.transition_connecting
                0x08009944       0x94 build/ContactorStates.o
 .text.ContactorStates_disconnecting
                0x080099d8       0x14 build/ContactorStates.o
                0x080099d8                ContactorStates_disconnecting
 .text.transition_faulting
                0x080099ec       0x18 build/ContactorStates.o
                0x080099ec                transition_faulting
 .text.ContactorStates_otosettling_init
                0x08009a04       0x24 build/ContactorStates.o
                0x08009a04                ContactorStates_otosettling_init
 .text.ContactorStates_disconnected
                0x08009a28      0x10c build/ContactorStates.o
                0x08009a28                ContactorStates_disconnected
 .text.ContactorStates_connecting
                0x08009b34      0x498 build/ContactorStates.o
                0x08009b34                ContactorStates_connecting
 .text.ContactorStates_connected
                0x08009fcc       0x34 build/ContactorStates.o
                0x08009fcc                ContactorStates_connected
 .text.ContactorStates_faulting
                0x0800a000       0x14 build/ContactorStates.o
                0x0800a000                ContactorStates_faulting
 .text.ContactorStates_faulted
                0x0800a014       0x14 build/ContactorStates.o
                0x0800a014                ContactorStates_faulted
 .text.ContactorStates_reset
                0x0800a028       0x18 build/ContactorStates.o
                0x0800a028                ContactorStates_reset
 .text.StartContactorTask
                0x0800a040      0x1d4 build/ContactorTask.o
                0x0800a040                StartContactorTask
 .text.swtim3_callback
                0x0800a214       0x18 build/ContactorTask.o
 .text.swtim2_callback
                0x0800a22c       0x18 build/ContactorTask.o
 .text.swtim1_callback
                0x0800a244       0x18 build/ContactorTask.o
 .text.xContactorTaskCreate
                0x0800a25c       0x38 build/ContactorTask.o
                0x0800a25c                xContactorTaskCreate
 .text.ContactorUpdates
                0x0800a294      0x164 build/ContactorUpdates.o
                0x0800a294                ContactorUpdates
 .text.iir_filter_lx_init
                0x0800a3f8       0x28 build/iir_filter_lx.o
 .text.iir_filter_lx_do
                0x0800a420       0x34 build/iir_filter_lx.o
                0x0800a420                iir_filter_lx_do
 .text.adcextendsum
                0x0800a454       0xac build/adcextendsum.o
                0x0800a454                adcextendsum
 .text.Reset_Handler
                0x0800a500       0x48 build/startup_stm32f103xb.o
                0x0800a500                Reset_Handler
 .text.Default_Handler
                0x0800a548        0x2 build/startup_stm32f103xb.o
                0x0800a548                RTC_Alarm_IRQHandler
                0x0800a548                EXTI2_IRQHandler
                0x0800a548                TIM1_CC_IRQHandler
                0x0800a548                PVD_IRQHandler
                0x0800a548                EXTI3_IRQHandler
                0x0800a548                EXTI0_IRQHandler
                0x0800a548                I2C2_EV_IRQHandler
                0x0800a548                ADC1_2_IRQHandler
                0x0800a548                SPI1_IRQHandler
                0x0800a548                TAMPER_IRQHandler
                0x0800a548                RTC_IRQHandler
                0x0800a548                DMA1_Channel7_IRQHandler
                0x0800a548                TIM4_IRQHandler
                0x0800a548                I2C1_EV_IRQHandler
                0x0800a548                DMA1_Channel6_IRQHandler
                0x0800a548                TIM3_IRQHandler
                0x0800a548                RCC_IRQHandler
                0x0800a548                TIM1_TRG_COM_IRQHandler
                0x0800a548                Default_Handler
                0x0800a548                EXTI15_10_IRQHandler
                0x0800a548                EXTI9_5_IRQHandler
                0x0800a548                SPI2_IRQHandler
                0x0800a548                EXTI4_IRQHandler
                0x0800a548                DMA1_Channel3_IRQHandler
                0x0800a548                TIM1_UP_IRQHandler
                0x0800a548                WWDG_IRQHandler
                0x0800a548                TIM1_BRK_IRQHandler
                0x0800a548                EXTI1_IRQHandler
                0x0800a548                USART2_IRQHandler
                0x0800a548                I2C2_ER_IRQHandler
                0x0800a548                DMA1_Channel2_IRQHandler
                0x0800a548                CAN1_SCE_IRQHandler
                0x0800a548                FLASH_IRQHandler
                0x0800a548                I2C1_ER_IRQHandler
                0x0800a548                USBWakeUp_IRQHandler
 *fill*         0x0800a54a        0x2 
 .text.calloc   0x0800a54c       0x10 /home/deh/launchpad/gcc-arm-none-eabi-5_4-2016q3/bin/../lib/gcc/arm-none-eabi/5.4.1/../../../../arm-none-eabi/lib/armv7-m/libc.a(lib_a-calloc.o)
                0x0800a54c                calloc
 .text._calloc_r
                0x0800a55c       0x60 /home/deh/launchpad/gcc-arm-none-eabi-5_4-2016q3/bin/../lib/gcc/arm-none-eabi/5.4.1/../../../../arm-none-eabi/lib/armv7-m/libc.a(lib_a-callocr.o)
                0x0800a55c                _calloc_r
 .text.__libc_init_array
                0x0800a5bc       0x50 /home/deh/launchpad/gcc-arm-none-eabi-5_4-2016q3/bin/../lib/gcc/arm-none-eabi/5.4.1/../../../../arm-none-eabi/lib/armv7-m/libc.a(lib_a-init.o)
                0x0800a5bc                __libc_init_array
 .text._malloc_r
                0x0800a60c      0x558 /home/deh/launchpad/gcc-arm-none-eabi-5_4-2016q3/bin/../lib/gcc/arm-none-eabi/5.4.1/../../../../arm-none-eabi/lib/armv7-m/libc.a(lib_a-mallocr.o)
                0x0800a60c                _malloc_r
 .text.memset   0x0800ab64       0x9c /home/deh/launchpad/gcc-arm-none-eabi-5_4-2016q3/bin/../lib/gcc/arm-none-eabi/5.4.1/../../../../arm-none-eabi/lib/armv7-m/libc.a(lib_a-memset.o)
                0x0800ab64                memset
 .text.__malloc_lock
                0x0800ac00        0x4 /home/deh/launchpad/gcc-arm-none-eabi-5_4-2016q3/bin/../lib/gcc/arm-none-eabi/5.4.1/../../../../arm-none-eabi/lib/armv7-m/libc.a(lib_a-mlock.o)
                0x0800ac00                __malloc_lock
 .text.__malloc_unlock
                0x0800ac04        0x4 /home/deh/launchpad/gcc-arm-none-eabi-5_4-2016q3/bin/../lib/gcc/arm-none-eabi/5.4.1/../../../../arm-none-eabi/lib/armv7-m/libc.a(lib_a-mlock.o)
                0x0800ac04                __malloc_unlock
 .text._sbrk_r  0x0800ac08       0x24 /home/deh/launchpad/gcc-arm-none-eabi-5_4-2016q3/bin/../lib/gcc/arm-none-eabi/5.4.1/../../../../arm-none-eabi/lib/armv7-m/libc.a(lib_a-sbrkr.o)
                0x0800ac08                _sbrk_r
 .text.strlen   0x0800ac2c       0x5c /home/deh/launchpad/gcc-arm-none-eabi-5_4-2016q3/bin/../lib/gcc/arm-none-eabi/5.4.1/../../../../arm-none-eabi/lib/armv7-m/libc.a(lib_a-strlen-stub.o)
                0x0800ac2c                strlen
 .text._vsnprintf_r
                0x0800ac88       0x70 /home/deh/launchpad/gcc-arm-none-eabi-5_4-2016q3/bin/../lib/gcc/arm-none-eabi/5.4.1/../../../../arm-none-eabi/lib/armv7-m/libc.a(lib_a-vsnprintf.o)
                0x0800ac88                _vsnprintf_r
 .text.vsnprintf
                0x0800acf8       0x20 /home/deh/launchpad/gcc-arm-none-eabi-5_4-2016q3/bin/../lib/gcc/arm-none-eabi/5.4.1/../../../../arm-none-eabi/lib/armv7-m/libc.a(lib_a-vsnprintf.o)
                0x0800acf8                vsnprintf
 .text.startup.register_fini
                0x0800ad18       0x14 /home/deh/launchpad/gcc-arm-none-eabi-5_4-2016q3/bin/../lib/gcc/arm-none-eabi/5.4.1/../../../../arm-none-eabi/lib/armv7-m/libc.a(lib_a-__call_atexit.o)
 .text.atexit   0x0800ad2c        0xc /home/deh/launchpad/gcc-arm-none-eabi-5_4-2016q3/bin/../lib/gcc/arm-none-eabi/5.4.1/../../../../arm-none-eabi/lib/armv7-m/libc.a(lib_a-atexit.o)
                0x0800ad2c                atexit
 .text.__libc_fini_array
                0x0800ad38       0x28 /home/deh/launchpad/gcc-arm-none-eabi-5_4-2016q3/bin/../lib/gcc/arm-none-eabi/5.4.1/../../../../arm-none-eabi/lib/armv7-m/libc.a(lib_a-fini.o)
                0x0800ad38                __libc_fini_array
 .text._malloc_trim_r
                0x0800ad60       0x9c /home/deh/launchpad/gcc-arm-none-eabi-5_4-2016q3/bin/../lib/gcc/arm-none-eabi/5.4.1/../../../../arm-none-eabi/lib/armv7-m/libc.a(lib_a-freer.o)
                0x0800ad60                _malloc_trim_r
 .text._free_r  0x0800adfc      0x1d0 /home/deh/launchpad/gcc-arm-none-eabi-5_4-2016q3/bin/../lib/gcc/arm-none-eabi/5.4.1/../../../../arm-none-eabi/lib/armv7-m/libc.a(lib_a-freer.o)
                0x0800adfc                _free_r
 .text._svfprintf_r
                0x0800afcc     0x1760 /home/deh/launchpad/gcc-arm-none-eabi-5_4-2016q3/bin/../lib/gcc/arm-none-eabi/5.4.1/../../../../arm-none-eabi/lib/armv7-m/libc.a(lib_a-svfprintf.o)
                0x0800afcc                _svfprintf_r
 .text.__register_exitproc
                0x0800c72c       0xa4 /home/deh/launchpad/gcc-arm-none-eabi-5_4-2016q3/bin/../lib/gcc/arm-none-eabi/5.4.1/../../../../arm-none-eabi/lib/armv7-m/libc.a(lib_a-__atexit.o)
                0x0800c72c                __register_exitproc
 .text.quorem   0x0800c7d0      0x12c /home/deh/launchpad/gcc-arm-none-eabi-5_4-2016q3/bin/../lib/gcc/arm-none-eabi/5.4.1/../../../../arm-none-eabi/lib/armv7-m/libc.a(lib_a-dtoa.o)
 *fill*         0x0800c8fc        0x4 
 .text._dtoa_r  0x0800c900      0xe4c /home/deh/launchpad/gcc-arm-none-eabi-5_4-2016q3/bin/../lib/gcc/arm-none-eabi/5.4.1/../../../../arm-none-eabi/lib/armv7-m/libc.a(lib_a-dtoa.o)
                0x0800c900                _dtoa_r
 .text._localeconv_r
                0x0800d74c       0x1c /home/deh/launchpad/gcc-arm-none-eabi-5_4-2016q3/bin/../lib/gcc/arm-none-eabi/5.4.1/../../../../arm-none-eabi/lib/armv7-m/libc.a(lib_a-localeconv.o)
                0x0800d74c                _localeconv_r
 .text.memchr   0x0800d768       0x8c /home/deh/launchpad/gcc-arm-none-eabi-5_4-2016q3/bin/../lib/gcc/arm-none-eabi/5.4.1/../../../../arm-none-eabi/lib/armv7-m/libc.a(lib_a-memchr-stub.o)
                0x0800d768                memchr
 .text._Balloc  0x0800d7f4       0x50 /home/deh/launchpad/gcc-arm-none-eabi-5_4-2016q3/bin/../lib/gcc/arm-none-eabi/5.4.1/../../../../arm-none-eabi/lib/armv7-m/libc.a(lib_a-mprec.o)
                0x0800d7f4                _Balloc
 .text._Bfree   0x0800d844       0x14 /home/deh/launchpad/gcc-arm-none-eabi-5_4-2016q3/bin/../lib/gcc/arm-none-eabi/5.4.1/../../../../arm-none-eabi/lib/armv7-m/libc.a(lib_a-mprec.o)
                0x0800d844                _Bfree
 .text.__multadd
                0x0800d858       0x80 /home/deh/launchpad/gcc-arm-none-eabi-5_4-2016q3/bin/../lib/gcc/arm-none-eabi/5.4.1/../../../../arm-none-eabi/lib/armv7-m/libc.a(lib_a-mprec.o)
                0x0800d858                __multadd
 .text.__hi0bits
                0x0800d8d8       0x40 /home/deh/launchpad/gcc-arm-none-eabi-5_4-2016q3/bin/../lib/gcc/arm-none-eabi/5.4.1/../../../../arm-none-eabi/lib/armv7-m/libc.a(lib_a-mprec.o)
                0x0800d8d8                __hi0bits
 .text.__lo0bits
                0x0800d918       0x5c /home/deh/launchpad/gcc-arm-none-eabi-5_4-2016q3/bin/../lib/gcc/arm-none-eabi/5.4.1/../../../../arm-none-eabi/lib/armv7-m/libc.a(lib_a-mprec.o)
                0x0800d918                __lo0bits
 .text.__i2b    0x0800d974       0x14 /home/deh/launchpad/gcc-arm-none-eabi-5_4-2016q3/bin/../lib/gcc/arm-none-eabi/5.4.1/../../../../arm-none-eabi/lib/armv7-m/libc.a(lib_a-mprec.o)
                0x0800d974                __i2b
 .text.__multiply
                0x0800d988      0x13c /home/deh/launchpad/gcc-arm-none-eabi-5_4-2016q3/bin/../lib/gcc/arm-none-eabi/5.4.1/../../../../arm-none-eabi/lib/armv7-m/libc.a(lib_a-mprec.o)
                0x0800d988                __multiply
 .text.__pow5mult
                0x0800dac4       0xa0 /home/deh/launchpad/gcc-arm-none-eabi-5_4-2016q3/bin/../lib/gcc/arm-none-eabi/5.4.1/../../../../arm-none-eabi/lib/armv7-m/libc.a(lib_a-mprec.o)
                0x0800dac4                __pow5mult
 .text.__lshift
                0x0800db64       0xac /home/deh/launchpad/gcc-arm-none-eabi-5_4-2016q3/bin/../lib/gcc/arm-none-eabi/5.4.1/../../../../arm-none-eabi/lib/armv7-m/libc.a(lib_a-mprec.o)
                0x0800db64                __lshift
 .text.__mcmp   0x0800dc10       0x40 /home/deh/launchpad/gcc-arm-none-eabi-5_4-2016q3/bin/../lib/gcc/arm-none-eabi/5.4.1/../../../../arm-none-eabi/lib/armv7-m/libc.a(lib_a-mprec.o)
                0x0800dc10                __mcmp
 .text.__mdiff  0x0800dc50      0x128 /home/deh/launchpad/gcc-arm-none-eabi-5_4-2016q3/bin/../lib/gcc/arm-none-eabi/5.4.1/../../../../arm-none-eabi/lib/armv7-m/libc.a(lib_a-mprec.o)
                0x0800dc50                __mdiff
 .text.__d2b    0x0800dd78       0xa8 /home/deh/launchpad/gcc-arm-none-eabi-5_4-2016q3/bin/../lib/gcc/arm-none-eabi/5.4.1/../../../../arm-none-eabi/lib/armv7-m/libc.a(lib_a-mprec.o)
                0x0800dd78                __d2b
 .text.__ssprint_r
                0x0800de20      0x100 /home/deh/launchpad/gcc-arm-none-eabi-5_4-2016q3/bin/../lib/gcc/arm-none-eabi/5.4.1/../../../../arm-none-eabi/lib/armv7-m/libc.a(lib_a-svfiprintf.o)
                0x0800de20                __ssprint_r
 .text.__ascii_mbtowc
                0x0800df20       0x2c /home/deh/launchpad/gcc-arm-none-eabi-5_4-2016q3/bin/../lib/gcc/arm-none-eabi/5.4.1/../../../../arm-none-eabi/lib/armv7-m/libc.a(lib_a-mbtowc_r.o)
                0x0800df20                __ascii_mbtowc
 .text.memmove  0x0800df4c       0xc8 /home/deh/launchpad/gcc-arm-none-eabi-5_4-2016q3/bin/../lib/gcc/arm-none-eabi/5.4.1/../../../../arm-none-eabi/lib/armv7-m/libc.a(lib_a-memmove.o)
                0x0800df4c                memmove
 .text._realloc_r
                0x0800e014      0x3d4 /home/deh/launchpad/gcc-arm-none-eabi-5_4-2016q3/bin/../lib/gcc/arm-none-eabi/5.4.1/../../../../arm-none-eabi/lib/armv7-m/libc.a(lib_a-reallocr.o)
                0x0800e014                _realloc_r
 .text.__ascii_wctomb
                0x0800e3e8       0x1c /home/deh/launchpad/gcc-arm-none-eabi-5_4-2016q3/bin/../lib/gcc/arm-none-eabi/5.4.1/../../../../arm-none-eabi/lib/armv7-m/libc.a(lib_a-wctomb_r.o)
                0x0800e3e8                __ascii_wctomb
 .text._sbrk    0x0800e404       0x1c /home/deh/launchpad/gcc-arm-none-eabi-5_4-2016q3/bin/../lib/gcc/arm-none-eabi/5.4.1/../../../../arm-none-eabi/lib/armv7-m/libnosys.a(sbrk.o)
                0x0800e404                _sbrk
 *(.glue_7)
 .glue_7        0x0800e420        0x0 linker stubs
 *(.glue_7t)
 .glue_7t       0x0800e420        0x0 linker stubs
 *(.eh_frame)
 .eh_frame      0x0800e420        0x0 /home/deh/launchpad/gcc-arm-none-eabi-5_4-2016q3/bin/../lib/gcc/arm-none-eabi/5.4.1/armv7-m/crtbegin.o
 *(.init)
 .init          0x0800e420        0x4 /home/deh/launchpad/gcc-arm-none-eabi-5_4-2016q3/bin/../lib/gcc/arm-none-eabi/5.4.1/armv7-m/crti.o
                0x0800e420                _init
 .init          0x0800e424        0x8 /home/deh/launchpad/gcc-arm-none-eabi-5_4-2016q3/bin/../lib/gcc/arm-none-eabi/5.4.1/armv7-m/crtn.o
 *(.fini)
 .fini          0x0800e42c        0x4 /home/deh/launchpad/gcc-arm-none-eabi-5_4-2016q3/bin/../lib/gcc/arm-none-eabi/5.4.1/armv7-m/crti.o
                0x0800e42c                _fini
 .fini          0x0800e430        0x8 /home/deh/launchpad/gcc-arm-none-eabi-5_4-2016q3/bin/../lib/gcc/arm-none-eabi/5.4.1/armv7-m/crtn.o
                0x0800e438                . = ALIGN (0x4)
                0x0800e438                _etext = .

.vfp11_veneer   0x0800e438        0x0
 .vfp11_veneer  0x0800e438        0x0 linker stubs

.v4_bx          0x0800e438        0x0
 .v4_bx         0x0800e438        0x0 linker stubs

.iplt           0x0800e438        0x0
 .iplt          0x0800e438        0x0 /home/deh/launchpad/gcc-arm-none-eabi-5_4-2016q3/bin/../lib/gcc/arm-none-eabi/5.4.1/armv7-m/crtbegin.o

.rodata         0x0800e438      0x9a4
                0x0800e438                . = ALIGN (0x4)
 *(.rodata)
 .rodata        0x0800e438       0x1c build/main.o
 .rodata        0x0800e454       0x12 build/stm32f1xx_hal_rcc.o
 *fill*         0x0800e466        0x2 
 .rodata        0x0800e468       0x12 build/stm32f1xx_hal_rcc_ex.o
 *fill*         0x0800e47a        0x2 
 .rodata        0x0800e47c       0x38 build/CanTask.o
 .rodata        0x0800e4b4       0x1c build/MailboxTask.o
 .rodata        0x0800e4d0       0x1c build/ADCTask.o
 .rodata        0x0800e4ec       0x1c build/ContactorTask.o
 *(.rodata*)
 .rodata.str1.4
                0x0800e508      0x408 build/main.o
                                0x40c (size before relaxing)
 .rodata.AHBPrescTable
                0x0800e910       0x10 build/system_stm32f1xx.o
                0x0800e910                AHBPrescTable
 .rodata.APBPrescTable
                0x0800e920        0x8 build/system_stm32f1xx.o
                0x0800e920                APBPrescTable
 .rodata.str1.4
                0x0800e928        0x5 build/tasks.o
 *fill*         0x0800e92d        0x3 
 .rodata.str1.4
                0x0800e930       0x10 build/timers.o
 .rodata.str1.4
                0x0800e940        0xf build/SerialTaskSend.o
 .rodata.str1.4
                0x0800e940       0x16 build/CanTask.o
 *fill*         0x0800e956        0x2 
 .rodata.str1.4
                0x0800e958       0x17 build/SerialTaskReceive.o
 *fill*         0x0800e96f        0x1 
 .rodata.mrse   0x0800e970       0x90 build/morse.o
                0x0800e970                mrse
 .rodata.str1.4
                0x0800ea00        0xc build/MailboxTask.o
 .rodata.str1.4
                0x0800ea0c        0x8 build/ADCTask.o
 .rodata.hxbn   0x0800ea14      0x100 build/hexbin.o
                0x0800ea14                hxbn
 .rodata.str1.4
                0x0800eb14       0x11 build/stackwatermark.o
 *fill*         0x0800eb25        0x3 
 .rodata.str1.4
                0x0800eb28       0x26 build/ContactorTask.o
 *fill*         0x0800eb4e        0x2 
 .rodata._global_impure_ptr
                0x0800eb50        0x4 /home/deh/launchpad/gcc-arm-none-eabi-5_4-2016q3/bin/../lib/gcc/arm-none-eabi/5.4.1/../../../../arm-none-eabi/lib/armv7-m/libc.a(lib_a-impure.o)
                0x0800eb50                _global_impure_ptr
 .rodata.zeroes.7256
                0x0800eb54       0x10 /home/deh/launchpad/gcc-arm-none-eabi-5_4-2016q3/bin/../lib/gcc/arm-none-eabi/5.4.1/../../../../arm-none-eabi/lib/armv7-m/libc.a(lib_a-svfprintf.o)
 .rodata.str1.4
                0x0800eb64       0x42 /home/deh/launchpad/gcc-arm-none-eabi-5_4-2016q3/bin/../lib/gcc/arm-none-eabi/5.4.1/../../../../arm-none-eabi/lib/armv7-m/libc.a(lib_a-svfprintf.o)
 *fill*         0x0800eba6        0x2 
 .rodata.blanks.7255
                0x0800eba8       0x10 /home/deh/launchpad/gcc-arm-none-eabi-5_4-2016q3/bin/../lib/gcc/arm-none-eabi/5.4.1/../../../../arm-none-eabi/lib/armv7-m/libc.a(lib_a-svfprintf.o)
 .rodata.str1.4
                0x0800ebb8       0x10 /home/deh/launchpad/gcc-arm-none-eabi-5_4-2016q3/bin/../lib/gcc/arm-none-eabi/5.4.1/../../../../arm-none-eabi/lib/armv7-m/libc.a(lib_a-dtoa.o)
                                 0x12 (size before relaxing)
 .rodata.__mprec_tens
                0x0800ebc8       0xc8 /home/deh/launchpad/gcc-arm-none-eabi-5_4-2016q3/bin/../lib/gcc/arm-none-eabi/5.4.1/../../../../arm-none-eabi/lib/armv7-m/libc.a(lib_a-mprec.o)
                0x0800ebc8                __mprec_tens
 .rodata.p05.6085
                0x0800ec90        0xc /home/deh/launchpad/gcc-arm-none-eabi-5_4-2016q3/bin/../lib/gcc/arm-none-eabi/5.4.1/../../../../arm-none-eabi/lib/armv7-m/libc.a(lib_a-mprec.o)
 *fill*         0x0800ec9c        0x4 
 .rodata.__mprec_bigtens
                0x0800eca0       0x28 /home/deh/launchpad/gcc-arm-none-eabi-5_4-2016q3/bin/../lib/gcc/arm-none-eabi/5.4.1/../../../../arm-none-eabi/lib/armv7-m/libc.a(lib_a-mprec.o)
                0x0800eca0                __mprec_bigtens
 .rodata.str1.4
                0x0800ecc8       0x10 /home/deh/launchpad/gcc-arm-none-eabi-5_4-2016q3/bin/../lib/gcc/arm-none-eabi/5.4.1/../../../../arm-none-eabi/lib/armv7-m/libc.a(lib_a-locale.o)
                                 0x12 (size before relaxing)
 .rodata._ctype_
                0x0800ecd8      0x101 /home/deh/launchpad/gcc-arm-none-eabi-5_4-2016q3/bin/../lib/gcc/arm-none-eabi/5.4.1/../../../../arm-none-eabi/lib/armv7-m/libc.a(lib_a-ctype_.o)
                0x0800ecd8                _ctype_
                0x0800eddc                . = ALIGN (0x4)
 *fill*         0x0800edd9        0x3 

.ARM.extab
 *(.ARM.extab* .gnu.linkonce.armextab.*)

.ARM            0x0800eddc        0x8
                0x0800eddc                __exidx_start = .
 *(.ARM.exidx*)
 .ARM.exidx     0x0800eddc        0x8 /home/deh/launchpad/gcc-arm-none-eabi-5_4-2016q3/bin/../lib/gcc/arm-none-eabi/5.4.1/armv7-m/libgcc.a(_udivmoddi4.o)
                0x0800ede4                __exidx_end = .

.rel.dyn        0x0800ede4        0x0
 .rel.iplt      0x0800ede4        0x0 /home/deh/launchpad/gcc-arm-none-eabi-5_4-2016q3/bin/../lib/gcc/arm-none-eabi/5.4.1/armv7-m/crtbegin.o

.preinit_array  0x0800ede4        0x0
                0x0800ede4                PROVIDE (__preinit_array_start, .)
 *(.preinit_array*)
                0x0800ede4                PROVIDE (__preinit_array_end, .)

.init_array     0x0800ede4        0x8
                0x0800ede4                PROVIDE (__init_array_start, .)
 *(SORT(.init_array.*))
 .init_array.00000
                0x0800ede4        0x4 /home/deh/launchpad/gcc-arm-none-eabi-5_4-2016q3/bin/../lib/gcc/arm-none-eabi/5.4.1/../../../../arm-none-eabi/lib/armv7-m/libc.a(lib_a-__call_atexit.o)
 *(.init_array*)
 .init_array    0x0800ede8        0x4 /home/deh/launchpad/gcc-arm-none-eabi-5_4-2016q3/bin/../lib/gcc/arm-none-eabi/5.4.1/armv7-m/crtbegin.o
                0x0800edec                PROVIDE (__init_array_end, .)

.fini_array     0x0800edec        0x4
                0x0800edec                PROVIDE (__fini_array_start, .)
 *(SORT(.fini_array.*))
 *(.fini_array*)
 .fini_array    0x0800edec        0x4 /home/deh/launchpad/gcc-arm-none-eabi-5_4-2016q3/bin/../lib/gcc/arm-none-eabi/5.4.1/armv7-m/crtbegin.o
                0x0800edf0                PROVIDE (__fini_array_end, .)
                0x0800edf0                _sidata = LOADADDR (.data)

.data           0x20000000      0x9b8 load address 0x0800edf0
                0x20000000                . = ALIGN (0x4)
                0x20000000                _sdata = .
 *(.data)
 *(.data*)
 .data.m_trap   0x20000000        0x2 build/main.o
                0x20000000                m_trap
 .data.uwTickFreq
                0x20000002        0x1 build/stm32f1xx_hal.o
                0x20000002                uwTickFreq
 *fill*         0x20000003        0x1 
 .data.SystemCoreClock
                0x20000004        0x4 build/system_stm32f1xx.o
                0x20000004                SystemCoreClock
 .data.uxCriticalNesting
                0x20000008        0x4 build/port.o
 *fill*         0x2000000c        0x4 
 .data.impure_data
                0x20000010      0x428 /home/deh/launchpad/gcc-arm-none-eabi-5_4-2016q3/bin/../lib/gcc/arm-none-eabi/5.4.1/../../../../arm-none-eabi/lib/armv7-m/libc.a(lib_a-impure.o)
 .data._impure_ptr
                0x20000438        0x4 /home/deh/launchpad/gcc-arm-none-eabi-5_4-2016q3/bin/../lib/gcc/arm-none-eabi/5.4.1/../../../../arm-none-eabi/lib/armv7-m/libc.a(lib_a-impure.o)
                0x20000438                _impure_ptr
 .data.__malloc_av_
                0x2000043c      0x408 /home/deh/launchpad/gcc-arm-none-eabi-5_4-2016q3/bin/../lib/gcc/arm-none-eabi/5.4.1/../../../../arm-none-eabi/lib/armv7-m/libc.a(lib_a-mallocr.o)
                0x2000043c                __malloc_av_
 .data.__malloc_trim_threshold
                0x20000844        0x4 /home/deh/launchpad/gcc-arm-none-eabi-5_4-2016q3/bin/../lib/gcc/arm-none-eabi/5.4.1/../../../../arm-none-eabi/lib/armv7-m/libc.a(lib_a-mallocr.o)
                0x20000844                __malloc_trim_threshold
 .data.__malloc_sbrk_base
                0x20000848        0x4 /home/deh/launchpad/gcc-arm-none-eabi-5_4-2016q3/bin/../lib/gcc/arm-none-eabi/5.4.1/../../../../arm-none-eabi/lib/armv7-m/libc.a(lib_a-mallocr.o)
                0x20000848                __malloc_sbrk_base
 .data.__global_locale
                0x2000084c      0x16c /home/deh/launchpad/gcc-arm-none-eabi-5_4-2016q3/bin/../lib/gcc/arm-none-eabi/5.4.1/../../../../arm-none-eabi/lib/armv7-m/libc.a(lib_a-locale.o)
                0x2000084c                __global_locale
                0x200009b8                . = ALIGN (0x4)
                0x200009b8                _edata = .

.jcr            0x200009b8        0x0 load address 0x0800f7a8
 .jcr           0x200009b8        0x0 /home/deh/launchpad/gcc-arm-none-eabi-5_4-2016q3/bin/../lib/gcc/arm-none-eabi/5.4.1/armv7-m/crtbegin.o

.igot.plt       0x200009b8        0x0 load address 0x0800f7a8
 .igot.plt      0x200009b8        0x0 /home/deh/launchpad/gcc-arm-none-eabi-5_4-2016q3/bin/../lib/gcc/arm-none-eabi/5.4.1/armv7-m/crtbegin.o
                0x200009b8                . = ALIGN (0x4)

.bss            0x200009b8     0x30f8 load address 0x0800f7a8
                0x200009b8                _sbss = .
                0x200009b8                __bss_start__ = _sbss
 *(.bss)
 .bss           0x200009b8       0x1c /home/deh/launchpad/gcc-arm-none-eabi-5_4-2016q3/bin/../lib/gcc/arm-none-eabi/5.4.1/armv7-m/crtbegin.o
 *(.bss*)
 .bss.xIdleStack
                0x200009d4      0x200 build/freertos.o
 .bss.xTimerStack
                0x20000bd4      0x400 build/freertos.o
 .bss.xIdleTaskTCBBuffer
                0x20000fd4       0x54 build/freertos.o
 .bss.xTimerTaskTCBBuffer
                0x20001028       0x54 build/freertos.o
 .bss.pxDelayedTaskList
                0x2000107c        0x4 build/tasks.o
 .bss.xSchedulerRunning
                0x20001080        0x4 build/tasks.o
 .bss.xTasksWaitingTermination
                0x20001084       0x14 build/tasks.o
 .bss.pxOverflowDelayedTaskList
                0x20001098        0x4 build/tasks.o
 .bss.uxPendedTicks
                0x2000109c        0x4 build/tasks.o
 .bss.pxReadyTasksLists
                0x200010a0       0x8c build/tasks.o
 .bss.uxSchedulerSuspended
                0x2000112c        0x4 build/tasks.o
 .bss.uxDeletedTasksWaitingCleanUp
                0x20001130        0x4 build/tasks.o
 .bss.uxCurrentNumberOfTasks
                0x20001134        0x4 build/tasks.o
 .bss.pxCurrentTCB
                0x20001138        0x4 build/tasks.o
                0x20001138                pxCurrentTCB
 .bss.xPendingReadyList
                0x2000113c       0x14 build/tasks.o
 .bss.xNumOfOverflows
                0x20001150        0x4 build/tasks.o
 .bss.xTickCount
                0x20001154        0x4 build/tasks.o
 .bss.xNextTaskUnblockTime
                0x20001158        0x4 build/tasks.o
 .bss.uxTaskNumber
                0x2000115c        0x4 build/tasks.o
 .bss.xDelayedTaskList1
                0x20001160       0x14 build/tasks.o
 .bss.xDelayedTaskList2
                0x20001174       0x14 build/tasks.o
 .bss.xSuspendedTaskList
                0x20001188       0x14 build/tasks.o
 .bss.uxTopReadyPriority
                0x2000119c        0x4 build/tasks.o
 .bss.xYieldPending
                0x200011a0        0x4 build/tasks.o
 .bss.pxCurrentTimerList
                0x200011a4        0x4 build/timers.o
 .bss.xActiveTimerList1
                0x200011a8       0x14 build/timers.o
 .bss.xActiveTimerList2
                0x200011bc       0x14 build/timers.o
 .bss.xStaticTimerQueue.5524
                0x200011d0       0x48 build/timers.o
 .bss.xLastTime.5476
                0x20001218        0x4 build/timers.o
 .bss.xTimerQueue
                0x2000121c        0x4 build/timers.o
 .bss.pxOverflowTimerList
                0x20001220        0x4 build/timers.o
 .bss.xTimerTaskHandle
                0x20001224        0x4 build/timers.o
 .bss.ucStaticTimerQueueStorage.5525
                0x20001228       0x78 build/timers.o
 .bss.xFreeBytesRemaining
                0x200012a0        0x4 build/heap_4.o
 .bss.pxEnd     0x200012a4        0x4 build/heap_4.o
 .bss.xStart    0x200012a8        0x8 build/heap_4.o
 .bss.ucHeap    0x200012b0     0x1c20 build/heap_4.o
 .bss.xBlockAllocatedBit
                0x20002ed0        0x4 build/heap_4.o
 .bss.xMinimumEverFreeBytesRemaining
                0x20002ed4        0x4 build/heap_4.o
 .bss.ucMaxSysCallPriority
                0x20002ed8        0x1 build/port.o
 *fill*         0x20002ed9        0x3 
 .bss.ulMaxPRIGROUPValue
                0x20002edc        0x4 build/port.o
 .bss.pbhd      0x20002ee0        0x4 build/SerialTaskSend.o
                0x20002ee0                pbhd
 .bss.SerialTaskHandle
                0x20002ee4        0x4 build/SerialTaskSend.o
                0x20002ee4                SerialTaskHandle
 .bss.ppctllist
                0x20002ee8        0x4 build/can_iface.o
 .bss.pctllist  0x20002eec       0x10 build/can_iface.o
 .bss.canfilt1  0x20002efc       0x2c build/canfilter_setup.o
 .bss.canfilt2  0x20002f28       0x2c build/canfilter_setup.o
 .bss.canfilt3  0x20002f54       0x2c build/canfilter_setup.o
 .bss.sw        0x20002f80        0x1 build/yprintf.o
 *fill*         0x20002f81        0x3 
 .bss.prbhd     0x20002f84        0x4 build/SerialTaskReceive.o
 .bss.SerialTaskReceiveHandle
                0x20002f88        0x4 build/SerialTaskReceive.o
                0x20002f88                SerialTaskReceiveHandle
 .bss.mbxcannum
                0x20002f8c       0x14 build/MailboxTask.o
                0x20002f8c                mbxcannum
 .bss.adcdbctr  0x20002fa0        0x4 build/ADCTask.o
                0x20002fa0                adcdbctr
 .bss.ctr       0x20002fa4        0x4 build/adcextendsum.o
 .bss.__malloc_max_total_mem
                0x20002fa8        0x4 /home/deh/launchpad/gcc-arm-none-eabi-5_4-2016q3/bin/../lib/gcc/arm-none-eabi/5.4.1/../../../../arm-none-eabi/lib/armv7-m/libc.a(lib_a-mallocr.o)
                0x20002fa8                __malloc_max_total_mem
 .bss.__malloc_max_sbrked_mem
                0x20002fac        0x4 /home/deh/launchpad/gcc-arm-none-eabi-5_4-2016q3/bin/../lib/gcc/arm-none-eabi/5.4.1/../../../../arm-none-eabi/lib/armv7-m/libc.a(lib_a-mallocr.o)
                0x20002fac                __malloc_max_sbrked_mem
 .bss.__malloc_top_pad
                0x20002fb0        0x4 /home/deh/launchpad/gcc-arm-none-eabi-5_4-2016q3/bin/../lib/gcc/arm-none-eabi/5.4.1/../../../../arm-none-eabi/lib/armv7-m/libc.a(lib_a-mallocr.o)
                0x20002fb0                __malloc_top_pad
 .bss.__malloc_current_mallinfo
                0x20002fb4       0x28 /home/deh/launchpad/gcc-arm-none-eabi-5_4-2016q3/bin/../lib/gcc/arm-none-eabi/5.4.1/../../../../arm-none-eabi/lib/armv7-m/libc.a(lib_a-mallocr.o)
                0x20002fb4                __malloc_current_mallinfo
 .bss.heap_end.4167
                0x20002fdc        0x4 /home/deh/launchpad/gcc-arm-none-eabi-5_4-2016q3/bin/../lib/gcc/arm-none-eabi/5.4.1/../../../../arm-none-eabi/lib/armv7-m/libnosys.a(sbrk.o)
 *(COMMON)
 COMMON         0x20002fe0      0x281 build/main.o
                0x20002fe0                defaultTaskHandle
                0x20002fe4                canflag1
                0x20002fe8                htim4
                0x20003028                huart3
                0x20003068                debug03
                0x2000306c                hcan
                0x20003094                debug03_prev
                0x20003098                htim3
                0x200030d8                hdma_usart1_tx
                0x2000311c                hadc1
                0x2000314c                hdma_usart1_rx
                0x20003190                huart1
                0x200031d0                debugTX1c_prev
                0x200031d4                pctl0
                0x200031d8                hdma_adc1
                0x2000321c                debugTX1c
                0x20003220                htim1
                0x20003260                canflag
 *fill*         0x20003261        0x3 
 COMMON         0x20003264        0x4 build/stm32f1xx_hal.o
                0x20003264                uwTick
 COMMON         0x20003268       0x40 build/stm32f1xx_hal_timebase_tim.o
                0x20003268                htim2
 COMMON         0x200032a8       0x40 build/queue.o
                0x200032a8                xQueueRegistry
 COMMON         0x200032e8        0x4 build/SerialTaskSend.o
                0x200032e8                SerialTaskSendQHandle
 COMMON         0x200032ec       0x10 build/CanTask.o
                0x200032ec                CanTxQHandle
                0x200032f0                CanRxQHandle
                0x200032f4                CanRxTaskHandle
                0x200032f8                CanTxTaskHandle
 COMMON         0x200032fc        0x8 build/can_iface.o
                0x200032fc                dbgcanrxctr
                0x20003300                dbgcantxctr
 COMMON         0x20003304        0x4 build/yprintf.o
                0x20003304                vsnprintfSemaphoreHandle
 COMMON         0x20003308        0x8 build/MailboxTask.o
                0x20003308                dbgmbxctr
                0x2000330c                MailboxTaskHandle
 COMMON         0x20003310       0x40 build/adctask.o
                0x20003310                adc1dmatskblk
 COMMON         0x20003350       0x1c build/ADCTask.o
                0x20003350                adcsumdb
                0x20003368                ADCTaskHandle
 *fill*         0x2000336c        0x4 
 COMMON         0x20003370      0x414 build/adcparams.o
                0x20003370                dbgadcratio
                0x20003378                adc1
                0x20003778                adcdbg2
                0x2000377c                adcdbg1
                0x20003780                dbgadcfil
 COMMON         0x20003784       0x10 build/ContactorEvents.o
                0x20003784                dbggpsflag
                0x20003788                dbgevcmd
                0x2000378c                dbgCE1
                0x20003790                dbgev04
 COMMON         0x20003794        0x8 build/contactor_msgs.o
                0x20003794                dbgmsg1ctr
                0x20003798                dbgkactr
 COMMON         0x2000379c        0x4 build/ContactorStates.o
                0x2000379c                dbgstmp
 COMMON         0x200037a0      0x30c build/ContactorTask.o
                0x200037a0                contactorfunction
                0x20003aa8                ContactorTaskHandle
 COMMON         0x20003aac        0x4 /home/deh/launchpad/gcc-arm-none-eabi-5_4-2016q3/bin/../lib/gcc/arm-none-eabi/5.4.1/../../../../arm-none-eabi/lib/armv7-m/libc.a(lib_a-reent.o)
                0x20003aac                errno
                0x20003ab0                . = ALIGN (0x4)
                0x20003ab0                _ebss = .
                0x20003ab0                __bss_end__ = _ebss

._user_heap_stack
                0x20003ab0      0x600 load address 0x0800f7a8
                0x20003ab0                . = ALIGN (0x8)
                0x20003ab0                PROVIDE (end, .)
                [!provide]                PROVIDE (_end, .)
                0x20003cb0                . = (. + _Min_Heap_Size)
 *fill*         0x20003ab0      0x200 
                0x200040b0                . = (. + _Min_Stack_Size)
 *fill*         0x20003cb0      0x400 
                0x200040b0                . = ALIGN (0x8)

/DISCARD/
 libc.a(*)
 libm.a(*)
 libgcc.a(*)

.ARM.attributes
                0x00000000       0x29
 *(.ARM.attributes)
 .ARM.attributes
                0x00000000       0x1d /home/deh/launchpad/gcc-arm-none-eabi-5_4-2016q3/bin/../lib/gcc/arm-none-eabi/5.4.1/armv7-m/crti.o
 .ARM.attributes
                0x0000001d       0x2d /home/deh/launchpad/gcc-arm-none-eabi-5_4-2016q3/bin/../lib/gcc/arm-none-eabi/5.4.1/armv7-m/crtbegin.o
 .ARM.attributes
                0x0000004a       0x33 build/main.o
 .ARM.attributes
                0x0000007d       0x33 build/stm32f1xx_it.o
 .ARM.attributes
                0x000000b0       0x33 build/stm32f1xx_hal_msp.o
 .ARM.attributes
                0x000000e3       0x33 build/stm32f1xx_hal_tim.o
 .ARM.attributes
                0x00000116       0x33 build/stm32f1xx_hal_tim_ex.o
 .ARM.attributes
                0x00000149       0x33 build/stm32f1xx_hal.o
 .ARM.attributes
                0x0000017c       0x33 build/stm32f1xx_hal_rcc.o
 .ARM.attributes
                0x000001af       0x33 build/stm32f1xx_hal_rcc_ex.o
 .ARM.attributes
                0x000001e2       0x33 build/stm32f1xx_hal_gpio.o
 .ARM.attributes
                0x00000215       0x33 build/stm32f1xx_hal_dma.o
 .ARM.attributes
                0x00000248       0x33 build/stm32f1xx_hal_cortex.o
 .ARM.attributes
                0x0000027b       0x33 build/system_stm32f1xx.o
 .ARM.attributes
                0x000002ae       0x33 build/freertos.o
 .ARM.attributes
                0x000002e1       0x33 build/stm32f1xx_hal_timebase_tim.o
 .ARM.attributes
                0x00000314       0x33 build/stm32f1xx_hal_adc.o
 .ARM.attributes
                0x00000347       0x33 build/stm32f1xx_hal_adc_ex.o
 .ARM.attributes
                0x0000037a       0x33 build/stm32f1xx_hal_can.o
 .ARM.attributes
                0x000003ad       0x33 build/stm32f1xx_hal_uart.o
 .ARM.attributes
                0x000003e0       0x33 build/list.o
 .ARM.attributes
                0x00000413       0x33 build/queue.o
 .ARM.attributes
                0x00000446       0x33 build/tasks.o
 .ARM.attributes
                0x00000479       0x33 build/timers.o
 .ARM.attributes
                0x000004ac       0x33 build/cmsis_os.o
 .ARM.attributes
                0x000004df       0x33 build/heap_4.o
 .ARM.attributes
                0x00000512       0x33 build/port.o
 .ARM.attributes
                0x00000545       0x33 build/SerialTaskSend.o
 .ARM.attributes
                0x00000578       0x33 build/DTW_counter.o
 .ARM.attributes
                0x000005ab       0x33 build/CanTask.o
 .ARM.attributes
                0x000005de       0x33 build/can_iface.o
 .ARM.attributes
                0x00000611       0x33 build/canfilter_setup.o
 .ARM.attributes
                0x00000644       0x33 build/getserialbuf.o
 .ARM.attributes
                0x00000677       0x33 build/yprintf.o
 .ARM.attributes
                0x000006aa       0x33 build/SerialTaskReceive.o
 .ARM.attributes
                0x000006dd       0x33 build/morse.o
 .ARM.attributes
                0x00000710       0x33 build/payload_extract.o
 .ARM.attributes
                0x00000743       0x33 build/MailboxTask.o
 .ARM.attributes
                0x00000776       0x33 build/adctask.o
 .ARM.attributes
                0x000007a9       0x33 build/ADCTask.o
 .ARM.attributes
                0x000007dc       0x33 build/hexbin.o
 .ARM.attributes
                0x0000080f       0x33 build/stackwatermark.o
 .ARM.attributes
                0x00000842       0x33 build/adcfastsum16.o
 .ARM.attributes
                0x00000875       0x33 build/adc_idx_v_struct.o
 .ARM.attributes
                0x000008a8       0x33 build/adcparams.o
 .ARM.attributes
                0x000008db       0x33 build/adcparamsinit.o
 .ARM.attributes
                0x0000090e       0x33 build/contactor_cmd_msg.o
 .ARM.attributes
                0x00000941       0x33 build/ContactorEvents.o
 .ARM.attributes
                0x00000974       0x33 build/contactor_func_init.o
 .ARM.attributes
                0x000009a7       0x33 build/contactor_hv.o
 .ARM.attributes
                0x000009da       0x33 build/contactor_idx_v_struct.o
 .ARM.attributes
                0x00000a0d       0x33 build/contactor_msgs.o
 .ARM.attributes
                0x00000a40       0x33 build/ContactorStates.o
 .ARM.attributes
                0x00000a73       0x33 build/ContactorTask.o
 .ARM.attributes
                0x00000aa6       0x33 build/ContactorUpdates.o
 .ARM.attributes
                0x00000ad9       0x33 build/iir_filter_lx.o
 .ARM.attributes
                0x00000b0c       0x33 build/adcextendsum.o
 .ARM.attributes
                0x00000b3f       0x21 build/startup_stm32f103xb.o
 .ARM.attributes
                0x00000b60       0x2d /home/deh/launchpad/gcc-arm-none-eabi-5_4-2016q3/bin/../lib/gcc/arm-none-eabi/5.4.1/../../../../arm-none-eabi/lib/armv7-m/libc.a(lib_a-calloc.o)
 .ARM.attributes
                0x00000b8d       0x2d /home/deh/launchpad/gcc-arm-none-eabi-5_4-2016q3/bin/../lib/gcc/arm-none-eabi/5.4.1/../../../../arm-none-eabi/lib/armv7-m/libc.a(lib_a-callocr.o)
 .ARM.attributes
                0x00000bba       0x2d /home/deh/launchpad/gcc-arm-none-eabi-5_4-2016q3/bin/../lib/gcc/arm-none-eabi/5.4.1/../../../../arm-none-eabi/lib/armv7-m/libc.a(lib_a-impure.o)
 .ARM.attributes
                0x00000be7       0x2d /home/deh/launchpad/gcc-arm-none-eabi-5_4-2016q3/bin/../lib/gcc/arm-none-eabi/5.4.1/../../../../arm-none-eabi/lib/armv7-m/libc.a(lib_a-init.o)
 .ARM.attributes
                0x00000c14       0x2d /home/deh/launchpad/gcc-arm-none-eabi-5_4-2016q3/bin/../lib/gcc/arm-none-eabi/5.4.1/../../../../arm-none-eabi/lib/armv7-m/libc.a(lib_a-mallocr.o)
 .ARM.attributes
                0x00000c41       0x1b /home/deh/launchpad/gcc-arm-none-eabi-5_4-2016q3/bin/../lib/gcc/arm-none-eabi/5.4.1/../../../../arm-none-eabi/lib/armv7-m/libc.a(lib_a-memcpy.o)
 .ARM.attributes
                0x00000c5c       0x2d /home/deh/launchpad/gcc-arm-none-eabi-5_4-2016q3/bin/../lib/gcc/arm-none-eabi/5.4.1/../../../../arm-none-eabi/lib/armv7-m/libc.a(lib_a-memset.o)
 .ARM.attributes
                0x00000c89       0x2d /home/deh/launchpad/gcc-arm-none-eabi-5_4-2016q3/bin/../lib/gcc/arm-none-eabi/5.4.1/../../../../arm-none-eabi/lib/armv7-m/libc.a(lib_a-mlock.o)
 .ARM.attributes
                0x00000cb6       0x2d /home/deh/launchpad/gcc-arm-none-eabi-5_4-2016q3/bin/../lib/gcc/arm-none-eabi/5.4.1/../../../../arm-none-eabi/lib/armv7-m/libc.a(lib_a-sbrkr.o)
 .ARM.attributes
                0x00000ce3       0x2d /home/deh/launchpad/gcc-arm-none-eabi-5_4-2016q3/bin/../lib/gcc/arm-none-eabi/5.4.1/../../../../arm-none-eabi/lib/armv7-m/libc.a(lib_a-strlen-stub.o)
 .ARM.attributes
                0x00000d10       0x2d /home/deh/launchpad/gcc-arm-none-eabi-5_4-2016q3/bin/../lib/gcc/arm-none-eabi/5.4.1/../../../../arm-none-eabi/lib/armv7-m/libc.a(lib_a-vsnprintf.o)
 .ARM.attributes
                0x00000d3d       0x2d /home/deh/launchpad/gcc-arm-none-eabi-5_4-2016q3/bin/../lib/gcc/arm-none-eabi/5.4.1/../../../../arm-none-eabi/lib/armv7-m/libc.a(lib_a-__call_atexit.o)
 .ARM.attributes
                0x00000d6a       0x2d /home/deh/launchpad/gcc-arm-none-eabi-5_4-2016q3/bin/../lib/gcc/arm-none-eabi/5.4.1/../../../../arm-none-eabi/lib/armv7-m/libc.a(lib_a-atexit.o)
 .ARM.attributes
                0x00000d97       0x2d /home/deh/launchpad/gcc-arm-none-eabi-5_4-2016q3/bin/../lib/gcc/arm-none-eabi/5.4.1/../../../../arm-none-eabi/lib/armv7-m/libc.a(lib_a-fini.o)
 .ARM.attributes
                0x00000dc4       0x2d /home/deh/launchpad/gcc-arm-none-eabi-5_4-2016q3/bin/../lib/gcc/arm-none-eabi/5.4.1/../../../../arm-none-eabi/lib/armv7-m/libc.a(lib_a-freer.o)
 .ARM.attributes
                0x00000df1       0x2d /home/deh/launchpad/gcc-arm-none-eabi-5_4-2016q3/bin/../lib/gcc/arm-none-eabi/5.4.1/../../../../arm-none-eabi/lib/armv7-m/libc.a(lib_a-reent.o)
 .ARM.attributes
                0x00000e1e       0x2d /home/deh/launchpad/gcc-arm-none-eabi-5_4-2016q3/bin/../lib/gcc/arm-none-eabi/5.4.1/../../../../arm-none-eabi/lib/armv7-m/libc.a(lib_a-svfprintf.o)
 .ARM.attributes
                0x00000e4b       0x2d /home/deh/launchpad/gcc-arm-none-eabi-5_4-2016q3/bin/../lib/gcc/arm-none-eabi/5.4.1/../../../../arm-none-eabi/lib/armv7-m/libc.a(lib_a-__atexit.o)
 .ARM.attributes
                0x00000e78       0x2d /home/deh/launchpad/gcc-arm-none-eabi-5_4-2016q3/bin/../lib/gcc/arm-none-eabi/5.4.1/../../../../arm-none-eabi/lib/armv7-m/libc.a(lib_a-dtoa.o)
 .ARM.attributes
                0x00000ea5       0x2d /home/deh/launchpad/gcc-arm-none-eabi-5_4-2016q3/bin/../lib/gcc/arm-none-eabi/5.4.1/../../../../arm-none-eabi/lib/armv7-m/libc.a(lib_a-localeconv.o)
 .ARM.attributes
                0x00000ed2       0x2d /home/deh/launchpad/gcc-arm-none-eabi-5_4-2016q3/bin/../lib/gcc/arm-none-eabi/5.4.1/../../../../arm-none-eabi/lib/armv7-m/libc.a(lib_a-memchr-stub.o)
 .ARM.attributes
                0x00000eff       0x2d /home/deh/launchpad/gcc-arm-none-eabi-5_4-2016q3/bin/../lib/gcc/arm-none-eabi/5.4.1/../../../../arm-none-eabi/lib/armv7-m/libc.a(lib_a-mprec.o)
 .ARM.attributes
                0x00000f2c       0x2d /home/deh/launchpad/gcc-arm-none-eabi-5_4-2016q3/bin/../lib/gcc/arm-none-eabi/5.4.1/../../../../arm-none-eabi/lib/armv7-m/libc.a(lib_a-svfiprintf.o)
 .ARM.attributes
                0x00000f59       0x2d /home/deh/launchpad/gcc-arm-none-eabi-5_4-2016q3/bin/../lib/gcc/arm-none-eabi/5.4.1/../../../../arm-none-eabi/lib/armv7-m/libc.a(lib_a-locale.o)
 .ARM.attributes
                0x00000f86       0x2d /home/deh/launchpad/gcc-arm-none-eabi-5_4-2016q3/bin/../lib/gcc/arm-none-eabi/5.4.1/../../../../arm-none-eabi/lib/armv7-m/libc.a(lib_a-mbtowc_r.o)
 .ARM.attributes
                0x00000fb3       0x2d /home/deh/launchpad/gcc-arm-none-eabi-5_4-2016q3/bin/../lib/gcc/arm-none-eabi/5.4.1/../../../../arm-none-eabi/lib/armv7-m/libc.a(lib_a-memmove.o)
 .ARM.attributes
                0x00000fe0       0x2d /home/deh/launchpad/gcc-arm-none-eabi-5_4-2016q3/bin/../lib/gcc/arm-none-eabi/5.4.1/../../../../arm-none-eabi/lib/armv7-m/libc.a(lib_a-reallocr.o)
 .ARM.attributes
                0x0000100d       0x2d /home/deh/launchpad/gcc-arm-none-eabi-5_4-2016q3/bin/../lib/gcc/arm-none-eabi/5.4.1/../../../../arm-none-eabi/lib/armv7-m/libc.a(lib_a-wctomb_r.o)
 .ARM.attributes
                0x0000103a       0x2d /home/deh/launchpad/gcc-arm-none-eabi-5_4-2016q3/bin/../lib/gcc/arm-none-eabi/5.4.1/../../../../arm-none-eabi/lib/armv7-m/libc.a(lib_a-ctype_.o)
 .ARM.attributes
                0x00001067       0x2d /home/deh/launchpad/gcc-arm-none-eabi-5_4-2016q3/bin/../lib/gcc/arm-none-eabi/5.4.1/../../../../arm-none-eabi/lib/armv7-m/libnosys.a(sbrk.o)
 .ARM.attributes
                0x00001094       0x1d /home/deh/launchpad/gcc-arm-none-eabi-5_4-2016q3/bin/../lib/gcc/arm-none-eabi/5.4.1/armv7-m/libgcc.a(_arm_addsubdf3.o)
 .ARM.attributes
                0x000010b1       0x1d /home/deh/launchpad/gcc-arm-none-eabi-5_4-2016q3/bin/../lib/gcc/arm-none-eabi/5.4.1/armv7-m/libgcc.a(_arm_muldivdf3.o)
 .ARM.attributes
                0x000010ce       0x1d /home/deh/launchpad/gcc-arm-none-eabi-5_4-2016q3/bin/../lib/gcc/arm-none-eabi/5.4.1/armv7-m/libgcc.a(_arm_cmpdf2.o)
 .ARM.attributes
                0x000010eb       0x1d /home/deh/launchpad/gcc-arm-none-eabi-5_4-2016q3/bin/../lib/gcc/arm-none-eabi/5.4.1/armv7-m/libgcc.a(_arm_unorddf2.o)
 .ARM.attributes
                0x00001108       0x1d /home/deh/launchpad/gcc-arm-none-eabi-5_4-2016q3/bin/../lib/gcc/arm-none-eabi/5.4.1/armv7-m/libgcc.a(_arm_fixdfsi.o)
 .ARM.attributes
                0x00001125       0x1d /home/deh/launchpad/gcc-arm-none-eabi-5_4-2016q3/bin/../lib/gcc/arm-none-eabi/5.4.1/armv7-m/libgcc.a(_arm_fixunsdfsi.o)
 .ARM.attributes
                0x00001142       0x1d /home/deh/launchpad/gcc-arm-none-eabi-5_4-2016q3/bin/../lib/gcc/arm-none-eabi/5.4.1/armv7-m/libgcc.a(_arm_truncdfsf2.o)
 .ARM.attributes
                0x0000115f       0x1d /home/deh/launchpad/gcc-arm-none-eabi-5_4-2016q3/bin/../lib/gcc/arm-none-eabi/5.4.1/armv7-m/libgcc.a(_arm_addsubsf3.o)
 .ARM.attributes
                0x0000117c       0x1d /home/deh/launchpad/gcc-arm-none-eabi-5_4-2016q3/bin/../lib/gcc/arm-none-eabi/5.4.1/armv7-m/libgcc.a(_aeabi_uldivmod.o)
 .ARM.attributes
                0x00001199       0x2d /home/deh/launchpad/gcc-arm-none-eabi-5_4-2016q3/bin/../lib/gcc/arm-none-eabi/5.4.1/armv7-m/libgcc.a(_udivmoddi4.o)
 .ARM.attributes
                0x000011c6       0x1d /home/deh/launchpad/gcc-arm-none-eabi-5_4-2016q3/bin/../lib/gcc/arm-none-eabi/5.4.1/armv7-m/libgcc.a(_dvmd_tls.o)
 .ARM.attributes
                0x000011e3       0x1d /home/deh/launchpad/gcc-arm-none-eabi-5_4-2016q3/bin/../lib/gcc/arm-none-eabi/5.4.1/armv7-m/crtn.o
OUTPUT(build/contactor.elf elf32-littlearm)

.debug_info     0x00000000    0x35748
 .debug_info    0x00000000     0x424d build/main.o
 .debug_info    0x0000424d      0xe67 build/stm32f1xx_it.o
 .debug_info    0x000050b4     0x18ea build/stm32f1xx_hal_msp.o
 .debug_info    0x0000699e     0x309c build/stm32f1xx_hal_tim.o
 .debug_info    0x00009a3a     0x137e build/stm32f1xx_hal_tim_ex.o
 .debug_info    0x0000adb8      0x7d4 build/stm32f1xx_hal.o
 .debug_info    0x0000b58c      0xa90 build/stm32f1xx_hal_rcc.o
 .debug_info    0x0000c01c      0x44e build/stm32f1xx_hal_rcc_ex.o
 .debug_info    0x0000c46a      0x66e build/stm32f1xx_hal_gpio.o
 .debug_info    0x0000cad8      0x835 build/stm32f1xx_hal_dma.o
 .debug_info    0x0000d30d      0xcd0 build/stm32f1xx_hal_cortex.o
 .debug_info    0x0000dfdd      0x437 build/system_stm32f1xx.o
 .debug_info    0x0000e414      0x375 build/freertos.o
 .debug_info    0x0000e789      0x9c4 build/stm32f1xx_hal_timebase_tim.o
 .debug_info    0x0000f14d      0xece build/stm32f1xx_hal_adc.o
 .debug_info    0x0001001b      0xbc3 build/stm32f1xx_hal_adc_ex.o
 .debug_info    0x00010bde     0x11e7 build/stm32f1xx_hal_can.o
 .debug_info    0x00011dc5     0x1779 build/stm32f1xx_hal_uart.o
 .debug_info    0x0001353e      0x2d0 build/list.o
 .debug_info    0x0001380e     0x1c67 build/queue.o
 .debug_info    0x00015475     0x2903 build/tasks.o
 .debug_info    0x00017d78     0x15d8 build/timers.o
 .debug_info    0x00019350     0x2272 build/cmsis_os.o
 .debug_info    0x0001b5c2      0x46f build/heap_4.o
 .debug_info    0x0001ba31      0x506 build/port.o
 .debug_info    0x0001bf37      0xa63 build/SerialTaskSend.o
 .debug_info    0x0001c99a       0x3f build/DTW_counter.o
 .debug_info    0x0001c9d9     0x105a build/CanTask.o
 .debug_info    0x0001da33     0x138a build/can_iface.o
 .debug_info    0x0001edbd      0x831 build/canfilter_setup.o
 .debug_info    0x0001f5ee      0x759 build/getserialbuf.o
 .debug_info    0x0001fd47      0xa89 build/yprintf.o
 .debug_info    0x000207d0      0xfc7 build/SerialTaskReceive.o
 .debug_info    0x00021797      0x552 build/morse.o
 .debug_info    0x00021ce9      0xb55 build/payload_extract.o
 .debug_info    0x0002283e     0x15c5 build/MailboxTask.o
 .debug_info    0x00023e03      0x891 build/adctask.o
 .debug_info    0x00024694     0x1056 build/ADCTask.o
 .debug_info    0x000256ea       0xad build/hexbin.o
 .debug_info    0x00025797      0x6b1 build/stackwatermark.o
 .debug_info    0x00025e48      0x241 build/adcfastsum16.o
 .debug_info    0x00026089      0x2db build/adc_idx_v_struct.o
 .debug_info    0x00026364      0x904 build/adcparams.o
 .debug_info    0x00026c68      0x86c build/adcparamsinit.o
 .debug_info    0x000274d4     0x1ae0 build/contactor_cmd_msg.o
 .debug_info    0x00028fb4     0x215e build/ContactorEvents.o
 .debug_info    0x0002b112     0x1ea3 build/contactor_func_init.o
 .debug_info    0x0002cfb5     0x116e build/contactor_hv.o
 .debug_info    0x0002e123      0x37d build/contactor_idx_v_struct.o
 .debug_info    0x0002e4a0     0x1ac2 build/contactor_msgs.o
 .debug_info    0x0002ff62     0x1957 build/ContactorStates.o
 .debug_info    0x000318b9     0x1eff build/ContactorTask.o
 .debug_info    0x000337b8     0x164e build/ContactorUpdates.o
 .debug_info    0x00034e06      0x21f build/iir_filter_lx.o
 .debug_info    0x00035025      0x6c4 build/adcextendsum.o
 .debug_info    0x000356e9       0x5f build/startup_stm32f103xb.o

.debug_abbrev   0x00000000     0x6d5c
 .debug_abbrev  0x00000000      0x315 build/main.o
 .debug_abbrev  0x00000315      0x1be build/stm32f1xx_it.o
 .debug_abbrev  0x000004d3      0x252 build/stm32f1xx_hal_msp.o
 .debug_abbrev  0x00000725      0x278 build/stm32f1xx_hal_tim.o
 .debug_abbrev  0x0000099d      0x251 build/stm32f1xx_hal_tim_ex.o
 .debug_abbrev  0x00000bee      0x20f build/stm32f1xx_hal.o
 .debug_abbrev  0x00000dfd      0x28e build/stm32f1xx_hal_rcc.o
 .debug_abbrev  0x0000108b      0x1b6 build/stm32f1xx_hal_rcc_ex.o
 .debug_abbrev  0x00001241      0x202 build/stm32f1xx_hal_gpio.o
 .debug_abbrev  0x00001443      0x21d build/stm32f1xx_hal_dma.o
 .debug_abbrev  0x00001660      0x2ee build/stm32f1xx_hal_cortex.o
 .debug_abbrev  0x0000194e      0x124 build/system_stm32f1xx.o
 .debug_abbrev  0x00001a72       0xd6 build/freertos.o
 .debug_abbrev  0x00001b48      0x1d4 build/stm32f1xx_hal_timebase_tim.o
 .debug_abbrev  0x00001d1c      0x218 build/stm32f1xx_hal_adc.o
 .debug_abbrev  0x00001f34      0x23a build/stm32f1xx_hal_adc_ex.o
 .debug_abbrev  0x0000216e      0x28c build/stm32f1xx_hal_can.o
 .debug_abbrev  0x000023fa      0x281 build/stm32f1xx_hal_uart.o
 .debug_abbrev  0x0000267b       0xf8 build/list.o
 .debug_abbrev  0x00002773      0x323 build/queue.o
 .debug_abbrev  0x00002a96      0x381 build/tasks.o
 .debug_abbrev  0x00002e17      0x2e1 build/timers.o
 .debug_abbrev  0x000030f8      0x32d build/cmsis_os.o
 .debug_abbrev  0x00003425      0x216 build/heap_4.o
 .debug_abbrev  0x0000363b      0x26e build/port.o
 .debug_abbrev  0x000038a9      0x21b build/SerialTaskSend.o
 .debug_abbrev  0x00003ac4       0x2e build/DTW_counter.o
 .debug_abbrev  0x00003af2      0x26d build/CanTask.o
 .debug_abbrev  0x00003d5f      0x2f0 build/can_iface.o
 .debug_abbrev  0x0000404f      0x184 build/canfilter_setup.o
 .debug_abbrev  0x000041d3      0x16e build/getserialbuf.o
 .debug_abbrev  0x00004341      0x223 build/yprintf.o
 .debug_abbrev  0x00004564      0x2de build/SerialTaskReceive.o
 .debug_abbrev  0x00004842      0x1e9 build/morse.o
 .debug_abbrev  0x00004a2b      0x14f build/payload_extract.o
 .debug_abbrev  0x00004b7a      0x2ce build/MailboxTask.o
 .debug_abbrev  0x00004e48      0x1e5 build/adctask.o
 .debug_abbrev  0x0000502d      0x21b build/ADCTask.o
 .debug_abbrev  0x00005248       0x5d build/hexbin.o
 .debug_abbrev  0x000052a5      0x16c build/stackwatermark.o
 .debug_abbrev  0x00005411       0xd1 build/adcfastsum16.o
 .debug_abbrev  0x000054e2       0xb2 build/adc_idx_v_struct.o
 .debug_abbrev  0x00005594      0x15d build/adcparams.o
 .debug_abbrev  0x000056f1      0x184 build/adcparamsinit.o
 .debug_abbrev  0x00005875      0x238 build/contactor_cmd_msg.o
 .debug_abbrev  0x00005aad      0x237 build/ContactorEvents.o
 .debug_abbrev  0x00005ce4      0x223 build/contactor_func_init.o
 .debug_abbrev  0x00005f07      0x1ef build/contactor_hv.o
 .debug_abbrev  0x000060f6       0xc2 build/contactor_idx_v_struct.o
 .debug_abbrev  0x000061b8      0x272 build/contactor_msgs.o
 .debug_abbrev  0x0000642a      0x2a3 build/ContactorStates.o
 .debug_abbrev  0x000066cd      0x294 build/ContactorTask.o
 .debug_abbrev  0x00006961      0x1f0 build/ContactorUpdates.o
 .debug_abbrev  0x00006b51      0x10a build/iir_filter_lx.o
 .debug_abbrev  0x00006c5b       0xef build/adcextendsum.o
 .debug_abbrev  0x00006d4a       0x12 build/startup_stm32f103xb.o

.debug_loc      0x00000000    0x1490b
 .debug_loc     0x00000000      0x437 build/main.o
 .debug_loc     0x00000437      0x120 build/stm32f1xx_it.o
 .debug_loc     0x00000557      0x31e build/stm32f1xx_hal_msp.o
 .debug_loc     0x00000875     0x3cc6 build/stm32f1xx_hal_tim.o
 .debug_loc     0x0000453b     0x11d2 build/stm32f1xx_hal_tim_ex.o
 .debug_loc     0x0000570d      0x1a8 build/stm32f1xx_hal.o
 .debug_loc     0x000058b5      0x6e5 build/stm32f1xx_hal_rcc.o
 .debug_loc     0x00005f9a      0x344 build/stm32f1xx_hal_rcc_ex.o
 .debug_loc     0x000062de      0x41b build/stm32f1xx_hal_gpio.o
 .debug_loc     0x000066f9      0x7f4 build/stm32f1xx_hal_dma.o
 .debug_loc     0x00006eed      0x59f build/stm32f1xx_hal_cortex.o
 .debug_loc     0x0000748c       0xdf build/system_stm32f1xx.o
 .debug_loc     0x0000756b       0xb1 build/stm32f1xx_hal_timebase_tim.o
 .debug_loc     0x0000761c      0xbca build/stm32f1xx_hal_adc.o
 .debug_loc     0x000081e6      0xa5a build/stm32f1xx_hal_adc_ex.o
 .debug_loc     0x00008c40      0xd5b build/stm32f1xx_hal_can.o
 .debug_loc     0x0000999b     0x17b0 build/stm32f1xx_hal_uart.o
 .debug_loc     0x0000b14b       0x91 build/list.o
 .debug_loc     0x0000b1dc     0x136f build/queue.o
 .debug_loc     0x0000c54b     0x1b8d build/tasks.o
 .debug_loc     0x0000e0d8      0xd48 build/timers.o
 .debug_loc     0x0000ee20     0x18dc build/cmsis_os.o
 .debug_loc     0x000106fc      0x32f build/heap_4.o
 .debug_loc     0x00010a2b      0x11a build/port.o
 .debug_loc     0x00010b45      0x2e8 build/SerialTaskSend.o
 .debug_loc     0x00010e2d      0x1df build/CanTask.o
 .debug_loc     0x0001100c      0x85f build/can_iface.o
 .debug_loc     0x0001186b      0x463 build/canfilter_setup.o
 .debug_loc     0x00011cce       0xbc build/getserialbuf.o
 .debug_loc     0x00011d8a      0x164 build/yprintf.o
 .debug_loc     0x00011eee      0x5a9 build/SerialTaskReceive.o
 .debug_loc     0x00012497      0x315 build/morse.o
 .debug_loc     0x000127ac      0x755 build/MailboxTask.o
 .debug_loc     0x00012f01      0x1c2 build/adctask.o
 .debug_loc     0x000130c3      0x123 build/ADCTask.o
 .debug_loc     0x000131e6       0xb7 build/stackwatermark.o
 .debug_loc     0x0001329d       0x75 build/adcfastsum16.o
 .debug_loc     0x00013312       0x4a build/adc_idx_v_struct.o
 .debug_loc     0x0001335c      0x287 build/adcparams.o
 .debug_loc     0x000135e3      0x235 build/adcparamsinit.o
 .debug_loc     0x00013818      0x31e build/contactor_cmd_msg.o
 .debug_loc     0x00013b36      0x1e1 build/ContactorEvents.o
 .debug_loc     0x00013d17      0x149 build/contactor_func_init.o
 .debug_loc     0x00013e60       0xc8 build/contactor_hv.o
 .debug_loc     0x00013f28       0x2c build/contactor_idx_v_struct.o
 .debug_loc     0x00013f54      0x229 build/contactor_msgs.o
 .debug_loc     0x0001417d      0x494 build/ContactorStates.o
 .debug_loc     0x00014611      0x1a8 build/ContactorTask.o
 .debug_loc     0x000147b9       0x4c build/ContactorUpdates.o
 .debug_loc     0x00014805       0xe6 build/iir_filter_lx.o
 .debug_loc     0x000148eb       0x20 build/adcextendsum.o

.debug_aranges  0x00000000     0x1b48
 .debug_aranges
                0x00000000       0x88 build/main.o
 .debug_aranges
                0x00000088       0x90 build/stm32f1xx_it.o
 .debug_aranges
                0x00000118       0x68 build/stm32f1xx_hal_msp.o
 .debug_aranges
                0x00000180      0x368 build/stm32f1xx_hal_tim.o
 .debug_aranges
                0x000004e8      0x138 build/stm32f1xx_hal_tim_ex.o
 .debug_aranges
                0x00000620       0xd0 build/stm32f1xx_hal.o
 .debug_aranges
                0x000006f0       0x90 build/stm32f1xx_hal_rcc.o
 .debug_aranges
                0x00000780       0x30 build/stm32f1xx_hal_rcc_ex.o
 .debug_aranges
                0x000007b0       0x58 build/stm32f1xx_hal_gpio.o
 .debug_aranges
                0x00000808       0x80 build/stm32f1xx_hal_dma.o
 .debug_aranges
                0x00000888       0x90 build/stm32f1xx_hal_cortex.o
 .debug_aranges
                0x00000918       0x28 build/system_stm32f1xx.o
 .debug_aranges
                0x00000940       0x30 build/freertos.o
 .debug_aranges
                0x00000970       0x30 build/stm32f1xx_hal_timebase_tim.o
 .debug_aranges
                0x000009a0       0xf0 build/stm32f1xx_hal_adc.o
 .debug_aranges
                0x00000a90       0x80 build/stm32f1xx_hal_adc_ex.o
 .debug_aranges
                0x00000b10      0x138 build/stm32f1xx_hal_can.o
 .debug_aranges
                0x00000c48      0x1d0 build/stm32f1xx_hal_uart.o
 .debug_aranges
                0x00000e18       0x40 build/list.o
 .debug_aranges
                0x00000e58       0xf8 build/queue.o
 .debug_aranges
                0x00000f50      0x1c0 build/tasks.o
 .debug_aranges
                0x00001110       0xc0 build/timers.o
 .debug_aranges
                0x000011d0      0x1d8 build/cmsis_os.o
 .debug_aranges
                0x000013a8       0x50 build/heap_4.o
 .debug_aranges
                0x000013f8       0x78 build/port.o
 .debug_aranges
                0x00001470       0x40 build/SerialTaskSend.o
 .debug_aranges
                0x000014b0       0x20 build/DTW_counter.o
 .debug_aranges
                0x000014d0       0x40 build/CanTask.o
 .debug_aranges
                0x00001510       0x90 build/can_iface.o
 .debug_aranges
                0x000015a0       0x30 build/canfilter_setup.o
 .debug_aranges
                0x000015d0       0x20 build/getserialbuf.o
 .debug_aranges
                0x000015f0       0x30 build/yprintf.o
 .debug_aranges
                0x00001620       0x68 build/SerialTaskReceive.o
 .debug_aranges
                0x00001688       0x48 build/morse.o
 .debug_aranges
                0x000016d0       0x20 build/payload_extract.o
 .debug_aranges
                0x000016f0       0x60 build/MailboxTask.o
 .debug_aranges
                0x00001750       0x30 build/adctask.o
 .debug_aranges
                0x00001780       0x28 build/ADCTask.o
 .debug_aranges
                0x000017a8       0x18 build/hexbin.o
 .debug_aranges
                0x000017c0       0x20 build/stackwatermark.o
 .debug_aranges
                0x000017e0       0x20 build/adcfastsum16.o
 .debug_aranges
                0x00001800       0x20 build/adc_idx_v_struct.o
 .debug_aranges
                0x00001820       0x40 build/adcparams.o
 .debug_aranges
                0x00001860       0x40 build/adcparamsinit.o
 .debug_aranges
                0x000018a0       0x38 build/contactor_cmd_msg.o
 .debug_aranges
                0x000018d8       0x60 build/ContactorEvents.o
 .debug_aranges
                0x00001938       0x28 build/contactor_func_init.o
 .debug_aranges
                0x00001960       0x28 build/contactor_hv.o
 .debug_aranges
                0x00001988       0x20 build/contactor_idx_v_struct.o
 .debug_aranges
                0x000019a8       0x40 build/contactor_msgs.o
 .debug_aranges
                0x000019e8       0x80 build/ContactorStates.o
 .debug_aranges
                0x00001a68       0x40 build/ContactorTask.o
 .debug_aranges
                0x00001aa8       0x20 build/ContactorUpdates.o
 .debug_aranges
                0x00001ac8       0x38 build/iir_filter_lx.o
 .debug_aranges
                0x00001b00       0x20 build/adcextendsum.o
 .debug_aranges
                0x00001b20       0x28 build/startup_stm32f103xb.o

.debug_ranges   0x00000000     0x1878
 .debug_ranges  0x00000000       0x78 build/main.o
 .debug_ranges  0x00000078       0x80 build/stm32f1xx_it.o
 .debug_ranges  0x000000f8       0x58 build/stm32f1xx_hal_msp.o
 .debug_ranges  0x00000150      0x358 build/stm32f1xx_hal_tim.o
 .debug_ranges  0x000004a8      0x128 build/stm32f1xx_hal_tim_ex.o
 .debug_ranges  0x000005d0       0xc0 build/stm32f1xx_hal.o
 .debug_ranges  0x00000690       0x98 build/stm32f1xx_hal_rcc.o
 .debug_ranges  0x00000728       0x38 build/stm32f1xx_hal_rcc_ex.o
 .debug_ranges  0x00000760       0x48 build/stm32f1xx_hal_gpio.o
 .debug_ranges  0x000007a8       0x70 build/stm32f1xx_hal_dma.o
 .debug_ranges  0x00000818       0x80 build/stm32f1xx_hal_cortex.o
 .debug_ranges  0x00000898       0x18 build/system_stm32f1xx.o
 .debug_ranges  0x000008b0       0x20 build/freertos.o
 .debug_ranges  0x000008d0       0x20 build/stm32f1xx_hal_timebase_tim.o
 .debug_ranges  0x000008f0       0xe0 build/stm32f1xx_hal_adc.o
 .debug_ranges  0x000009d0       0x70 build/stm32f1xx_hal_adc_ex.o
 .debug_ranges  0x00000a40      0x128 build/stm32f1xx_hal_can.o
 .debug_ranges  0x00000b68      0x1c0 build/stm32f1xx_hal_uart.o
 .debug_ranges  0x00000d28       0x30 build/list.o
 .debug_ranges  0x00000d58      0x130 build/queue.o
 .debug_ranges  0x00000e88      0x1d0 build/tasks.o
 .debug_ranges  0x00001058       0xc8 build/timers.o
 .debug_ranges  0x00001120      0x1c8 build/cmsis_os.o
 .debug_ranges  0x000012e8       0x40 build/heap_4.o
 .debug_ranges  0x00001328       0x68 build/port.o
 .debug_ranges  0x00001390       0x30 build/SerialTaskSend.o
 .debug_ranges  0x000013c0       0x10 build/DTW_counter.o
 .debug_ranges  0x000013d0       0x30 build/CanTask.o
 .debug_ranges  0x00001400       0x80 build/can_iface.o
 .debug_ranges  0x00001480       0x20 build/canfilter_setup.o
 .debug_ranges  0x000014a0       0x10 build/getserialbuf.o
 .debug_ranges  0x000014b0       0x20 build/yprintf.o
 .debug_ranges  0x000014d0       0x58 build/SerialTaskReceive.o
 .debug_ranges  0x00001528       0x38 build/morse.o
 .debug_ranges  0x00001560       0x10 build/payload_extract.o
 .debug_ranges  0x00001570       0x50 build/MailboxTask.o
 .debug_ranges  0x000015c0       0x20 build/adctask.o
 .debug_ranges  0x000015e0       0x18 build/ADCTask.o
 .debug_ranges  0x000015f8       0x10 build/stackwatermark.o
 .debug_ranges  0x00001608       0x10 build/adcfastsum16.o
 .debug_ranges  0x00001618       0x10 build/adc_idx_v_struct.o
 .debug_ranges  0x00001628       0x30 build/adcparams.o
 .debug_ranges  0x00001658       0x30 build/adcparamsinit.o
 .debug_ranges  0x00001688       0x28 build/contactor_cmd_msg.o
 .debug_ranges  0x000016b0       0x50 build/ContactorEvents.o
 .debug_ranges  0x00001700       0x18 build/contactor_func_init.o
 .debug_ranges  0x00001718       0x18 build/contactor_hv.o
 .debug_ranges  0x00001730       0x10 build/contactor_idx_v_struct.o
 .debug_ranges  0x00001740       0x30 build/contactor_msgs.o
 .debug_ranges  0x00001770       0x70 build/ContactorStates.o
 .debug_ranges  0x000017e0       0x30 build/ContactorTask.o
 .debug_ranges  0x00001810       0x10 build/ContactorUpdates.o
 .debug_ranges  0x00001820       0x28 build/iir_filter_lx.o
 .debug_ranges  0x00001848       0x10 build/adcextendsum.o
 .debug_ranges  0x00001858       0x20 build/startup_stm32f103xb.o

.debug_line     0x00000000     0xe79f
 .debug_line    0x00000000      0x87e build/main.o
 .debug_line    0x0000087e      0x2eb build/stm32f1xx_it.o
 .debug_line    0x00000b69      0x379 build/stm32f1xx_hal_msp.o
 .debug_line    0x00000ee2     0x108f build/stm32f1xx_hal_tim.o
 .debug_line    0x00001f71      0x75b build/stm32f1xx_hal_tim_ex.o
 .debug_line    0x000026cc      0x397 build/stm32f1xx_hal.o
 .debug_line    0x00002a63      0x51a build/stm32f1xx_hal_rcc.o
 .debug_line    0x00002f7d      0x2b6 build/stm32f1xx_hal_rcc_ex.o
 .debug_line    0x00003233      0x354 build/stm32f1xx_hal_gpio.o
 .debug_line    0x00003587      0x537 build/stm32f1xx_hal_dma.o
 .debug_line    0x00003abe      0x31a build/stm32f1xx_hal_cortex.o
 .debug_line    0x00003dd8      0x1a2 build/system_stm32f1xx.o
 .debug_line    0x00003f7a      0x1d8 build/freertos.o
 .debug_line    0x00004152      0x233 build/stm32f1xx_hal_timebase_tim.o
 .debug_line    0x00004385      0x73c build/stm32f1xx_hal_adc.o
 .debug_line    0x00004ac1      0x5b2 build/stm32f1xx_hal_adc_ex.o
 .debug_line    0x00005073      0x629 build/stm32f1xx_hal_can.o
 .debug_line    0x0000569c      0xa92 build/stm32f1xx_hal_uart.o
 .debug_line    0x0000612e      0x20d build/list.o
 .debug_line    0x0000633b      0x830 build/queue.o
 .debug_line    0x00006b6b      0xc39 build/tasks.o
 .debug_line    0x000077a4      0x528 build/timers.o
 .debug_line    0x00007ccc      0x891 build/cmsis_os.o
 .debug_line    0x0000855d      0x31d build/heap_4.o
 .debug_line    0x0000887a      0x2d5 build/port.o
 .debug_line    0x00008b4f      0x3db build/SerialTaskSend.o
 .debug_line    0x00008f2a       0x48 build/DTW_counter.o
 .debug_line    0x00008f72      0x35c build/CanTask.o
 .debug_line    0x000092ce      0x51d build/can_iface.o
 .debug_line    0x000097eb      0x252 build/canfilter_setup.o
 .debug_line    0x00009a3d      0x331 build/getserialbuf.o
 .debug_line    0x00009d6e      0x3d3 build/yprintf.o
 .debug_line    0x0000a141      0x498 build/SerialTaskReceive.o
 .debug_line    0x0000a5d9      0x263 build/morse.o
 .debug_line    0x0000a83c      0x297 build/payload_extract.o
 .debug_line    0x0000aad3      0x4ee build/MailboxTask.o
 .debug_line    0x0000afc1      0x38e build/adctask.o
 .debug_line    0x0000b34f      0x368 build/ADCTask.o
 .debug_line    0x0000b6b7       0xed build/hexbin.o
 .debug_line    0x0000b7a4      0x2d4 build/stackwatermark.o
 .debug_line    0x0000ba78      0x1b8 build/adcfastsum16.o
 .debug_line    0x0000bc30      0x17f build/adc_idx_v_struct.o
 .debug_line    0x0000bdaf      0x1e0 build/adcparams.o
 .debug_line    0x0000bf8f      0x215 build/adcparamsinit.o
 .debug_line    0x0000c1a4      0x3ee build/contactor_cmd_msg.o
 .debug_line    0x0000c592      0x4bb build/ContactorEvents.o
 .debug_line    0x0000ca4d      0x450 build/contactor_func_init.o
 .debug_line    0x0000ce9d      0x357 build/contactor_hv.o
 .debug_line    0x0000d1f4      0x194 build/contactor_idx_v_struct.o
 .debug_line    0x0000d388      0x3db build/contactor_msgs.o
 .debug_line    0x0000d763      0x53e build/ContactorStates.o
 .debug_line    0x0000dca1      0x496 build/ContactorTask.o
 .debug_line    0x0000e137      0x30b build/ContactorUpdates.o
 .debug_line    0x0000e442      0x15f build/iir_filter_lx.o
 .debug_line    0x0000e5a1      0x18c build/adcextendsum.o
 .debug_line    0x0000e72d       0x72 build/startup_stm32f103xb.o

.debug_str      0x00000000     0x80b0
 .debug_str     0x00000000     0x2200 build/main.o
                               0x2403 (size before relaxing)
 .debug_str     0x00002200      0x193 build/stm32f1xx_it.o
                                0xb3a (size before relaxing)
 .debug_str     0x00002393      0x126 build/stm32f1xx_hal_msp.o
                                0xfa5 (size before relaxing)
 .debug_str     0x000024b9      0xbd3 build/stm32f1xx_hal_tim.o
                               0x133f (size before relaxing)
 .debug_str     0x0000308c      0x3d8 build/stm32f1xx_hal_tim_ex.o
                                0xbe1 (size before relaxing)
 .debug_str     0x00003464      0x2e0 build/stm32f1xx_hal.o
                                0x805 (size before relaxing)
 .debug_str     0x00003744      0x1f9 build/stm32f1xx_hal_rcc.o
                                0x625 (size before relaxing)
 .debug_str     0x0000393d       0x9c build/stm32f1xx_hal_rcc_ex.o
                                0x3dd (size before relaxing)
 .debug_str     0x000039d9       0xff build/stm32f1xx_hal_gpio.o
                                0x410 (size before relaxing)
 .debug_str     0x00003ad8      0x1df build/stm32f1xx_hal_dma.o
                                0x607 (size before relaxing)
 .debug_str     0x00003cb7      0x276 build/stm32f1xx_hal_cortex.o
                                0x8b5 (size before relaxing)
 .debug_str     0x00003f2d       0x4a build/system_stm32f1xx.o
                                0x2b7 (size before relaxing)
 .debug_str     0x00003f77      0x11d build/freertos.o
                                0x3c1 (size before relaxing)
 .debug_str     0x00004094       0x47 build/stm32f1xx_hal_timebase_tim.o
                                0x9f3 (size before relaxing)
 .debug_str     0x000040db      0x2f0 build/stm32f1xx_hal_adc.o
                                0x8b9 (size before relaxing)
 .debug_str     0x000043cb      0x28e build/stm32f1xx_hal_adc_ex.o
                                0x85a (size before relaxing)
 .debug_str     0x00004659      0x51e build/stm32f1xx_hal_can.o
                                0xa48 (size before relaxing)
 .debug_str     0x00004b77      0x4e7 build/stm32f1xx_hal_uart.o
                                0xb6a (size before relaxing)
 .debug_str     0x0000505e      0x136 build/list.o
                                0x2db (size before relaxing)
 .debug_str     0x00005194      0x772 build/queue.o
                                0xa32 (size before relaxing)
 .debug_str     0x00005906      0x9e4 build/tasks.o
                               0x1070 (size before relaxing)
 .debug_str     0x000062ea      0x477 build/timers.o
                                0xabb (size before relaxing)
 .debug_str     0x00006761      0x6fa build/cmsis_os.o
                                0xff9 (size before relaxing)
 .debug_str     0x00006e5b      0x1c0 build/heap_4.o
                                0x3c4 (size before relaxing)
 .debug_str     0x0000701b      0x165 build/port.o
                                0x42c (size before relaxing)
 .debug_str     0x00007180       0xb4 build/SerialTaskSend.o
                                0x7c8 (size before relaxing)
 .debug_str     0x00007234       0x17 build/DTW_counter.o
                                 0xe3 (size before relaxing)
 .debug_str     0x0000724b       0xd2 build/CanTask.o
                                0xa3d (size before relaxing)
 .debug_str     0x0000731d       0xe5 build/can_iface.o
                                0xa23 (size before relaxing)
 .debug_str     0x00007402       0x98 build/canfilter_setup.o
                                0x600 (size before relaxing)
 .debug_str     0x0000749a       0x18 build/getserialbuf.o
                                0x653 (size before relaxing)
 .debug_str     0x000074b2       0x90 build/yprintf.o
                                0x7ea (size before relaxing)
 .debug_str     0x00007542       0xb0 build/SerialTaskReceive.o
                                0x937 (size before relaxing)
 .debug_str     0x000075f2       0x61 build/morse.o
                                0x27f (size before relaxing)
 .debug_str     0x00007653       0x2b build/payload_extract.o
                                0x70b (size before relaxing)
 .debug_str     0x0000767e      0x109 build/MailboxTask.o
                                0xb70 (size before relaxing)
 .debug_str     0x00007787       0x8d build/adctask.o
                                0x672 (size before relaxing)
 .debug_str     0x00007814       0x67 build/ADCTask.o
                                0xa8c (size before relaxing)
 .debug_str     0x0000787b       0x17 build/hexbin.o
                                0x171 (size before relaxing)
 .debug_str     0x00007892       0x2f build/stackwatermark.o
                                0x61f (size before relaxing)
 .debug_str     0x000078c1       0x1e build/adcfastsum16.o
                                0x248 (size before relaxing)
 .debug_str     0x000078df       0x3d build/adc_idx_v_struct.o
                                0x2cd (size before relaxing)
 .debug_str     0x0000791c       0x66 build/adcparams.o
                                0x4c7 (size before relaxing)
 .debug_str     0x00007982       0x8f build/adcparamsinit.o
                                0x4c0 (size before relaxing)
 .debug_str     0x00007a11      0x114 build/contactor_cmd_msg.o
                                0xf7e (size before relaxing)
 .debug_str     0x00007b25      0x132 build/ContactorEvents.o
                               0x13c2 (size before relaxing)
 .debug_str     0x00007c57       0x56 build/contactor_func_init.o
                               0x12c4 (size before relaxing)
 .debug_str     0x00007cad       0x1e build/contactor_hv.o
                                0xc4d (size before relaxing)
 .debug_str     0x00007ccb       0x49 build/contactor_idx_v_struct.o
                                0x362 (size before relaxing)
 .debug_str     0x00007d14       0x58 build/contactor_msgs.o
                                0xf1f (size before relaxing)
 .debug_str     0x00007d6c      0x220 build/ContactorStates.o
                                0xc22 (size before relaxing)
 .debug_str     0x00007f8c       0x91 build/ContactorTask.o
                               0x13b7 (size before relaxing)
 .debug_str     0x0000801d       0x1c build/ContactorUpdates.o
                                0xdc4 (size before relaxing)
 .debug_str     0x00008039       0x5f build/iir_filter_lx.o
                                0x222 (size before relaxing)
 .debug_str     0x00008098       0x18 build/adcextendsum.o
                                0x422 (size before relaxing)

.comment        0x00000000       0x6e
 .comment       0x00000000       0x6e build/main.o
                                 0x6f (size before relaxing)
 .comment       0x0000006e       0x6f build/stm32f1xx_it.o
 .comment       0x0000006e       0x6f build/stm32f1xx_hal_msp.o
 .comment       0x0000006e       0x6f build/stm32f1xx_hal_tim.o
 .comment       0x0000006e       0x6f build/stm32f1xx_hal_tim_ex.o
 .comment       0x0000006e       0x6f build/stm32f1xx_hal.o
 .comment       0x0000006e       0x6f build/stm32f1xx_hal_rcc.o
 .comment       0x0000006e       0x6f build/stm32f1xx_hal_rcc_ex.o
 .comment       0x0000006e       0x6f build/stm32f1xx_hal_gpio.o
 .comment       0x0000006e       0x6f build/stm32f1xx_hal_dma.o
 .comment       0x0000006e       0x6f build/stm32f1xx_hal_cortex.o
 .comment       0x0000006e       0x6f build/system_stm32f1xx.o
 .comment       0x0000006e       0x6f build/freertos.o
 .comment       0x0000006e       0x6f build/stm32f1xx_hal_timebase_tim.o
 .comment       0x0000006e       0x6f build/stm32f1xx_hal_adc.o
 .comment       0x0000006e       0x6f build/stm32f1xx_hal_adc_ex.o
 .comment       0x0000006e       0x6f build/stm32f1xx_hal_can.o
 .comment       0x0000006e       0x6f build/stm32f1xx_hal_uart.o
 .comment       0x0000006e       0x6f build/list.o
 .comment       0x0000006e       0x6f build/queue.o
 .comment       0x0000006e       0x6f build/tasks.o
 .comment       0x0000006e       0x6f build/timers.o
 .comment       0x0000006e       0x6f build/cmsis_os.o
 .comment       0x0000006e       0x6f build/heap_4.o
 .comment       0x0000006e       0x6f build/port.o
 .comment       0x0000006e       0x6f build/SerialTaskSend.o
 .comment       0x0000006e       0x6f build/DTW_counter.o
 .comment       0x0000006e       0x6f build/CanTask.o
 .comment       0x0000006e       0x6f build/can_iface.o
 .comment       0x0000006e       0x6f build/canfilter_setup.o
 .comment       0x0000006e       0x6f build/getserialbuf.o
 .comment       0x0000006e       0x6f build/yprintf.o
 .comment       0x0000006e       0x6f build/SerialTaskReceive.o
 .comment       0x0000006e       0x6f build/morse.o
 .comment       0x0000006e       0x6f build/payload_extract.o
 .comment       0x0000006e       0x6f build/MailboxTask.o
 .comment       0x0000006e       0x6f build/adctask.o
 .comment       0x0000006e       0x6f build/ADCTask.o
 .comment       0x0000006e       0x6f build/hexbin.o
 .comment       0x0000006e       0x6f build/stackwatermark.o
 .comment       0x0000006e       0x6f build/adcfastsum16.o
 .comment       0x0000006e       0x6f build/adc_idx_v_struct.o
 .comment       0x0000006e       0x6f build/adcparams.o
 .comment       0x0000006e       0x6f build/adcparamsinit.o
 .comment       0x0000006e       0x6f build/contactor_cmd_msg.o
 .comment       0x0000006e       0x6f build/ContactorEvents.o
 .comment       0x0000006e       0x6f build/contactor_func_init.o
 .comment       0x0000006e       0x6f build/contactor_hv.o
 .comment       0x0000006e       0x6f build/contactor_idx_v_struct.o
 .comment       0x0000006e       0x6f build/contactor_msgs.o
 .comment       0x0000006e       0x6f build/ContactorStates.o
 .comment       0x0000006e       0x6f build/ContactorTask.o
 .comment       0x0000006e       0x6f build/ContactorUpdates.o
 .comment       0x0000006e       0x6f build/iir_filter_lx.o
 .comment       0x0000006e       0x6f build/adcextendsum.o

.debug_frame    0x00000000     0x58f0
 .debug_frame   0x00000000      0x1d4 build/main.o
 .debug_frame   0x000001d4      0x16c build/stm32f1xx_it.o
 .debug_frame   0x00000340      0x134 build/stm32f1xx_hal_msp.o
 .debug_frame   0x00000474      0xb08 build/stm32f1xx_hal_tim.o
 .debug_frame   0x00000f7c      0x420 build/stm32f1xx_hal_tim_ex.o
 .debug_frame   0x0000139c      0x1c0 build/stm32f1xx_hal.o
 .debug_frame   0x0000155c      0x190 build/stm32f1xx_hal_rcc.o
 .debug_frame   0x000016ec       0x70 build/stm32f1xx_hal_rcc_ex.o
 .debug_frame   0x0000175c       0xd4 build/stm32f1xx_hal_gpio.o
 .debug_frame   0x00001830      0x17c build/stm32f1xx_hal_dma.o
 .debug_frame   0x000019ac      0x134 build/stm32f1xx_hal_cortex.o
 .debug_frame   0x00001ae0       0x30 build/system_stm32f1xx.o
 .debug_frame   0x00001b10       0x40 build/freertos.o
 .debug_frame   0x00001b50       0x4c build/stm32f1xx_hal_timebase_tim.o
 .debug_frame   0x00001b9c      0x32c build/stm32f1xx_hal_adc.o
 .debug_frame   0x00001ec8      0x1f0 build/stm32f1xx_hal_adc_ex.o
 .debug_frame   0x000020b8      0x320 build/stm32f1xx_hal_can.o
 .debug_frame   0x000023d8      0x574 build/stm32f1xx_hal_uart.o
 .debug_frame   0x0000294c       0x70 build/list.o
 .debug_frame   0x000029bc      0x354 build/queue.o
 .debug_frame   0x00002d10      0x634 build/tasks.o
 .debug_frame   0x00003344      0x28c build/timers.o
 .debug_frame   0x000035d0      0x64c build/cmsis_os.o
 .debug_frame   0x00003c1c       0xb8 build/heap_4.o
 .debug_frame   0x00003cd4       0xe8 build/port.o
 .debug_frame   0x00003dbc       0xb0 build/SerialTaskSend.o
 .debug_frame   0x00003e6c       0x20 build/DTW_counter.o
 .debug_frame   0x00003e8c       0xa8 build/CanTask.o
 .debug_frame   0x00003f34      0x200 build/can_iface.o
 .debug_frame   0x00004134       0xa4 build/canfilter_setup.o
 .debug_frame   0x000041d8       0x38 build/getserialbuf.o
 .debug_frame   0x00004210       0xa8 build/yprintf.o
 .debug_frame   0x000042b8      0x138 build/SerialTaskReceive.o
 .debug_frame   0x000043f0       0xc8 build/morse.o
 .debug_frame   0x000044b8       0x20 build/payload_extract.o
 .debug_frame   0x000044d8      0x15c build/MailboxTask.o
 .debug_frame   0x00004634       0x74 build/adctask.o
 .debug_frame   0x000046a8       0x5c build/ADCTask.o
 .debug_frame   0x00004704       0x30 build/stackwatermark.o
 .debug_frame   0x00004734       0x48 build/adcfastsum16.o
 .debug_frame   0x0000477c       0x3c build/adc_idx_v_struct.o
 .debug_frame   0x000047b8       0xa8 build/adcparams.o
 .debug_frame   0x00004860       0xc8 build/adcparamsinit.o
 .debug_frame   0x00004928       0x94 build/contactor_cmd_msg.o
 .debug_frame   0x000049bc       0xec build/ContactorEvents.o
 .debug_frame   0x00004aa8       0x60 build/contactor_func_init.o
 .debug_frame   0x00004b08       0x54 build/contactor_hv.o
 .debug_frame   0x00004b5c       0x34 build/contactor_idx_v_struct.o
 .debug_frame   0x00004b90       0xb0 build/contactor_msgs.o
 .debug_frame   0x00004c40      0x178 build/ContactorStates.o
 .debug_frame   0x00004db8       0xa8 build/ContactorTask.o
 .debug_frame   0x00004e60       0x30 build/ContactorUpdates.o
 .debug_frame   0x00004e90       0x80 build/iir_filter_lx.o
 .debug_frame   0x00004f10       0x34 build/adcextendsum.o
 .debug_frame   0x00004f44       0x20 /home/deh/launchpad/gcc-arm-none-eabi-5_4-2016q3/bin/../lib/gcc/arm-none-eabi/5.4.1/../../../../arm-none-eabi/lib/armv7-m/libc.a(lib_a-calloc.o)
 .debug_frame   0x00004f64       0x28 /home/deh/launchpad/gcc-arm-none-eabi-5_4-2016q3/bin/../lib/gcc/arm-none-eabi/5.4.1/../../../../arm-none-eabi/lib/armv7-m/libc.a(lib_a-callocr.o)
 .debug_frame   0x00004f8c       0x2c /home/deh/launchpad/gcc-arm-none-eabi-5_4-2016q3/bin/../lib/gcc/arm-none-eabi/5.4.1/../../../../arm-none-eabi/lib/armv7-m/libc.a(lib_a-init.o)
 .debug_frame   0x00004fb8       0x54 /home/deh/launchpad/gcc-arm-none-eabi-5_4-2016q3/bin/../lib/gcc/arm-none-eabi/5.4.1/../../../../arm-none-eabi/lib/armv7-m/libc.a(lib_a-mallocr.o)
 .debug_frame   0x0000500c       0x34 /home/deh/launchpad/gcc-arm-none-eabi-5_4-2016q3/bin/../lib/gcc/arm-none-eabi/5.4.1/../../../../arm-none-eabi/lib/armv7-m/libc.a(lib_a-memset.o)
 .debug_frame   0x00005040       0x30 /home/deh/launchpad/gcc-arm-none-eabi-5_4-2016q3/bin/../lib/gcc/arm-none-eabi/5.4.1/../../../../arm-none-eabi/lib/armv7-m/libc.a(lib_a-mlock.o)
 .debug_frame   0x00005070       0x2c /home/deh/launchpad/gcc-arm-none-eabi-5_4-2016q3/bin/../lib/gcc/arm-none-eabi/5.4.1/../../../../arm-none-eabi/lib/armv7-m/libc.a(lib_a-sbrkr.o)
 .debug_frame   0x0000509c       0x20 /home/deh/launchpad/gcc-arm-none-eabi-5_4-2016q3/bin/../lib/gcc/arm-none-eabi/5.4.1/../../../../arm-none-eabi/lib/armv7-m/libc.a(lib_a-strlen-stub.o)
 .debug_frame   0x000050bc       0x60 /home/deh/launchpad/gcc-arm-none-eabi-5_4-2016q3/bin/../lib/gcc/arm-none-eabi/5.4.1/../../../../arm-none-eabi/lib/armv7-m/libc.a(lib_a-vsnprintf.o)
 .debug_frame   0x0000511c       0x50 /home/deh/launchpad/gcc-arm-none-eabi-5_4-2016q3/bin/../lib/gcc/arm-none-eabi/5.4.1/../../../../arm-none-eabi/lib/armv7-m/libc.a(lib_a-__call_atexit.o)
 .debug_frame   0x0000516c       0x20 /home/deh/launchpad/gcc-arm-none-eabi-5_4-2016q3/bin/../lib/gcc/arm-none-eabi/5.4.1/../../../../arm-none-eabi/lib/armv7-m/libc.a(lib_a-atexit.o)
 .debug_frame   0x0000518c       0x34 /home/deh/launchpad/gcc-arm-none-eabi-5_4-2016q3/bin/../lib/gcc/arm-none-eabi/5.4.1/../../../../arm-none-eabi/lib/armv7-m/libc.a(lib_a-fini.o)
 .debug_frame   0x000051c0       0x74 /home/deh/launchpad/gcc-arm-none-eabi-5_4-2016q3/bin/../lib/gcc/arm-none-eabi/5.4.1/../../../../arm-none-eabi/lib/armv7-m/libc.a(lib_a-freer.o)
 .debug_frame   0x00005234       0x58 /home/deh/launchpad/gcc-arm-none-eabi-5_4-2016q3/bin/../lib/gcc/arm-none-eabi/5.4.1/../../../../arm-none-eabi/lib/armv7-m/libc.a(lib_a-reent.o)
 .debug_frame   0x0000528c       0x44 /home/deh/launchpad/gcc-arm-none-eabi-5_4-2016q3/bin/../lib/gcc/arm-none-eabi/5.4.1/../../../../arm-none-eabi/lib/armv7-m/libc.a(lib_a-svfprintf.o)
 .debug_frame   0x000052d0       0x34 /home/deh/launchpad/gcc-arm-none-eabi-5_4-2016q3/bin/../lib/gcc/arm-none-eabi/5.4.1/../../../../arm-none-eabi/lib/armv7-m/libc.a(lib_a-__atexit.o)
 .debug_frame   0x00005304       0x84 /home/deh/launchpad/gcc-arm-none-eabi-5_4-2016q3/bin/../lib/gcc/arm-none-eabi/5.4.1/../../../../arm-none-eabi/lib/armv7-m/libc.a(lib_a-dtoa.o)
 .debug_frame   0x00005388       0x40 /home/deh/launchpad/gcc-arm-none-eabi-5_4-2016q3/bin/../lib/gcc/arm-none-eabi/5.4.1/../../../../arm-none-eabi/lib/armv7-m/libc.a(lib_a-localeconv.o)
 .debug_frame   0x000053c8       0x34 /home/deh/launchpad/gcc-arm-none-eabi-5_4-2016q3/bin/../lib/gcc/arm-none-eabi/5.4.1/../../../../arm-none-eabi/lib/armv7-m/libc.a(lib_a-memchr-stub.o)
 .debug_frame   0x000053fc      0x264 /home/deh/launchpad/gcc-arm-none-eabi-5_4-2016q3/bin/../lib/gcc/arm-none-eabi/5.4.1/../../../../arm-none-eabi/lib/armv7-m/libc.a(lib_a-mprec.o)
 .debug_frame   0x00005660       0x78 /home/deh/launchpad/gcc-arm-none-eabi-5_4-2016q3/bin/../lib/gcc/arm-none-eabi/5.4.1/../../../../arm-none-eabi/lib/armv7-m/libc.a(lib_a-svfiprintf.o)
 .debug_frame   0x000056d8       0x84 /home/deh/launchpad/gcc-arm-none-eabi-5_4-2016q3/bin/../lib/gcc/arm-none-eabi/5.4.1/../../../../arm-none-eabi/lib/armv7-m/libc.a(lib_a-locale.o)
 .debug_frame   0x0000575c       0x4c /home/deh/launchpad/gcc-arm-none-eabi-5_4-2016q3/bin/../lib/gcc/arm-none-eabi/5.4.1/../../../../arm-none-eabi/lib/armv7-m/libc.a(lib_a-mbtowc_r.o)
 .debug_frame   0x000057a8       0x30 /home/deh/launchpad/gcc-arm-none-eabi-5_4-2016q3/bin/../lib/gcc/arm-none-eabi/5.4.1/../../../../arm-none-eabi/lib/armv7-m/libc.a(lib_a-memmove.o)
 .debug_frame   0x000057d8       0x58 /home/deh/launchpad/gcc-arm-none-eabi-5_4-2016q3/bin/../lib/gcc/arm-none-eabi/5.4.1/../../../../arm-none-eabi/lib/armv7-m/libc.a(lib_a-reallocr.o)
 .debug_frame   0x00005830       0x3c /home/deh/launchpad/gcc-arm-none-eabi-5_4-2016q3/bin/../lib/gcc/arm-none-eabi/5.4.1/../../../../arm-none-eabi/lib/armv7-m/libc.a(lib_a-wctomb_r.o)
 .debug_frame   0x0000586c       0x20 /home/deh/launchpad/gcc-arm-none-eabi-5_4-2016q3/bin/../lib/gcc/arm-none-eabi/5.4.1/../../../../arm-none-eabi/lib/armv7-m/libnosys.a(sbrk.o)
 .debug_frame   0x0000588c       0x2c /home/deh/launchpad/gcc-arm-none-eabi-5_4-2016q3/bin/../lib/gcc/arm-none-eabi/5.4.1/armv7-m/libgcc.a(_aeabi_uldivmod.o)
 .debug_frame   0x000058b8       0x38 /home/deh/launchpad/gcc-arm-none-eabi-5_4-2016q3/bin/../lib/gcc/arm-none-eabi/5.4.1/armv7-m/libgcc.a(_udivmoddi4.o)

Cross Reference Table

Symbol                                            File
ADC1_2_IRQHandler                                 build/startup_stm32f103xb.o
ADCTaskHandle                                     build/ADCTask.o
                                                  build/adctask.o
                                                  build/main.o
ADC_ConversionStop_Disable                        build/stm32f1xx_hal_adc.o
                                                  build/stm32f1xx_hal_adc_ex.o
ADC_DMAConvCplt                                   build/stm32f1xx_hal_adc.o
                                                  build/stm32f1xx_hal_adc_ex.o
ADC_DMAError                                      build/stm32f1xx_hal_adc.o
                                                  build/stm32f1xx_hal_adc_ex.o
ADC_DMAHalfConvCplt                               build/stm32f1xx_hal_adc.o
                                                  build/stm32f1xx_hal_adc_ex.o
ADC_Enable                                        build/stm32f1xx_hal_adc.o
                                                  build/stm32f1xx_hal_adc_ex.o
AHBPrescTable                                     build/system_stm32f1xx.o
                                                  build/stm32f1xx_hal_rcc.o
APBPrescTable                                     build/system_stm32f1xx.o
                                                  build/stm32f1xx_hal_rcc.o
BusFault_Handler                                  build/stm32f1xx_it.o
CAN1_RX1_IRQHandler                               build/stm32f1xx_it.o
CAN1_SCE_IRQHandler                               build/startup_stm32f103xb.o
CanRxQHandle                                      build/CanTask.o
CanRxTaskHandle                                   build/CanTask.o
CanTxQHandle                                      build/CanTask.o
                                                  build/contactor_msgs.o
                                                  build/contactor_cmd_msg.o
CanTxTaskHandle                                   build/CanTask.o
                                                  build/main.o
ContactorEvents_00                                build/ContactorEvents.o
                                                  build/ContactorTask.o
ContactorEvents_01                                build/ContactorEvents.o
                                                  build/ContactorTask.o
ContactorEvents_02                                build/ContactorEvents.o
ContactorEvents_03                                build/ContactorEvents.o
                                                  build/ContactorTask.o
ContactorEvents_04                                build/ContactorEvents.o
                                                  build/ContactorTask.o
ContactorEvents_05                                build/ContactorEvents.o
                                                  build/ContactorTask.o
ContactorEvents_06                                build/ContactorEvents.o
                                                  build/ContactorTask.o
ContactorEvents_07                                build/ContactorEvents.o
                                                  build/ContactorTask.o
ContactorEvents_08                                build/ContactorEvents.o
                                                  build/ContactorTask.o
ContactorStates_connected                         build/ContactorStates.o
                                                  build/ContactorTask.o
ContactorStates_connecting                        build/ContactorStates.o
                                                  build/ContactorTask.o
ContactorStates_disconnected                      build/ContactorStates.o
                                                  build/ContactorTask.o
ContactorStates_disconnecting                     build/ContactorStates.o
                                                  build/ContactorTask.o
ContactorStates_faulted                           build/ContactorStates.o
                                                  build/ContactorTask.o
ContactorStates_faulting                          build/ContactorStates.o
                                                  build/ContactorTask.o
ContactorStates_otosettling_init                  build/ContactorStates.o
                                                  build/ContactorTask.o
ContactorStates_reset                             build/ContactorStates.o
                                                  build/ContactorTask.o
ContactorTaskHandle                               build/ContactorTask.o
                                                  build/ADCTask.o
                                                  build/main.o
ContactorUpdates                                  build/ContactorUpdates.o
                                                  build/ContactorTask.o
DMA1_Channel1_IRQHandler                          build/stm32f1xx_it.o
DMA1_Channel2_IRQHandler                          build/startup_stm32f103xb.o
DMA1_Channel3_IRQHandler                          build/startup_stm32f103xb.o
DMA1_Channel4_IRQHandler                          build/stm32f1xx_it.o
DMA1_Channel5_IRQHandler                          build/stm32f1xx_it.o
DMA1_Channel6_IRQHandler                          build/startup_stm32f103xb.o
DMA1_Channel7_IRQHandler                          build/startup_stm32f103xb.o
DTW_counter_init                                  build/DTW_counter.o
                                                  build/main.o
DebugMon_Handler                                  build/stm32f1xx_it.o
Default_Handler                                   build/startup_stm32f103xb.o
EXTI0_IRQHandler                                  build/startup_stm32f103xb.o
EXTI15_10_IRQHandler                              build/startup_stm32f103xb.o
EXTI1_IRQHandler                                  build/startup_stm32f103xb.o
EXTI2_IRQHandler                                  build/startup_stm32f103xb.o
EXTI3_IRQHandler                                  build/startup_stm32f103xb.o
EXTI4_IRQHandler                                  build/startup_stm32f103xb.o
EXTI9_5_IRQHandler                                build/startup_stm32f103xb.o
Error_Handler                                     build/main.o
                                                  build/stm32f1xx_hal_msp.o
FLASH_IRQHandler                                  build/startup_stm32f103xb.o
FLASH_PageErase                                   build/stm32f1xx_hal_flash_ex.o
                                                  build/stm32f1xx_hal_flash.o
FLASH_WaitForLastOperation                        build/stm32f1xx_hal_flash.o
                                                  build/stm32f1xx_hal_flash_ex.o
HAL_ADCEx_Calibration_Start                       build/stm32f1xx_hal_adc_ex.o
                                                  build/adctask.o
HAL_ADCEx_InjectedConfigChannel                   build/stm32f1xx_hal_adc_ex.o
HAL_ADCEx_InjectedConvCpltCallback                build/stm32f1xx_hal_adc_ex.o
                                                  build/stm32f1xx_hal_adc.o
HAL_ADCEx_InjectedGetValue                        build/stm32f1xx_hal_adc_ex.o
HAL_ADCEx_InjectedPollForConversion               build/stm32f1xx_hal_adc_ex.o
HAL_ADCEx_InjectedStart                           build/stm32f1xx_hal_adc_ex.o
HAL_ADCEx_InjectedStart_IT                        build/stm32f1xx_hal_adc_ex.o
HAL_ADCEx_InjectedStop                            build/stm32f1xx_hal_adc_ex.o
HAL_ADCEx_InjectedStop_IT                         build/stm32f1xx_hal_adc_ex.o
HAL_ADCEx_MultiModeConfigChannel                  build/stm32f1xx_hal_adc_ex.o
HAL_ADCEx_MultiModeGetValue                       build/stm32f1xx_hal_adc_ex.o
HAL_ADCEx_MultiModeStart_DMA                      build/stm32f1xx_hal_adc_ex.o
HAL_ADCEx_MultiModeStop_DMA                       build/stm32f1xx_hal_adc_ex.o
HAL_ADC_AnalogWDGConfig                           build/stm32f1xx_hal_adc.o
HAL_ADC_ConfigChannel                             build/stm32f1xx_hal_adc.o
                                                  build/main.o
HAL_ADC_ConvCpltCallback                          build/adctask.o
                                                  build/stm32f1xx_hal_adc.o
HAL_ADC_ConvHalfCpltCallback                      build/adctask.o
                                                  build/stm32f1xx_hal_adc.o
HAL_ADC_DeInit                                    build/stm32f1xx_hal_adc.o
HAL_ADC_ErrorCallback                             build/stm32f1xx_hal_adc.o
HAL_ADC_GetError                                  build/stm32f1xx_hal_adc.o
HAL_ADC_GetState                                  build/stm32f1xx_hal_adc.o
HAL_ADC_GetValue                                  build/stm32f1xx_hal_adc.o
HAL_ADC_IRQHandler                                build/stm32f1xx_hal_adc.o
HAL_ADC_Init                                      build/stm32f1xx_hal_adc.o
                                                  build/main.o
HAL_ADC_LevelOutOfWindowCallback                  build/stm32f1xx_hal_adc.o
HAL_ADC_MspDeInit                                 build/stm32f1xx_hal_msp.o
HAL_ADC_MspInit                                   build/stm32f1xx_hal_msp.o
HAL_ADC_PollForConversion                         build/stm32f1xx_hal_adc.o
HAL_ADC_PollForEvent                              build/stm32f1xx_hal_adc.o
HAL_ADC_Start                                     build/stm32f1xx_hal_adc.o
HAL_ADC_Start_DMA                                 build/stm32f1xx_hal_adc.o
                                                  build/adctask.o
HAL_ADC_Start_IT                                  build/stm32f1xx_hal_adc.o
HAL_ADC_Stop                                      build/stm32f1xx_hal_adc.o
HAL_ADC_Stop_DMA                                  build/stm32f1xx_hal_adc.o
HAL_ADC_Stop_IT                                   build/stm32f1xx_hal_adc.o
HAL_CAN_AbortTxRequest                            build/stm32f1xx_hal_can.o
                                                  build/can_iface.o
HAL_CAN_ActivateNotification                      build/stm32f1xx_hal_can.o
                                                  build/main.o
HAL_CAN_AddTxMessage                              build/stm32f1xx_hal_can.o
                                                  build/can_iface.o
HAL_CAN_ConfigFilter                              build/stm32f1xx_hal_can.o
                                                  build/canfilter_setup.o
HAL_CAN_DeInit                                    build/stm32f1xx_hal_can.o
HAL_CAN_DeactivateNotification                    build/stm32f1xx_hal_can.o
HAL_CAN_ErrorCallback                             build/can_iface.o
                                                  build/stm32f1xx_hal_can.o
HAL_CAN_GetError                                  build/stm32f1xx_hal_can.o
HAL_CAN_GetRxFifoFillLevel                        build/stm32f1xx_hal_can.o
HAL_CAN_GetRxMessage                              build/stm32f1xx_hal_can.o
                                                  build/can_iface.o
HAL_CAN_GetState                                  build/stm32f1xx_hal_can.o
HAL_CAN_GetTxMailboxesFreeLevel                   build/stm32f1xx_hal_can.o
HAL_CAN_GetTxTimestamp                            build/stm32f1xx_hal_can.o
HAL_CAN_IRQHandler                                build/stm32f1xx_hal_can.o
                                                  build/stm32f1xx_it.o
HAL_CAN_Init                                      build/stm32f1xx_hal_can.o
                                                  build/main.o
HAL_CAN_IsSleepActive                             build/stm32f1xx_hal_can.o
HAL_CAN_IsTxMessagePending                        build/stm32f1xx_hal_can.o
HAL_CAN_MspDeInit                                 build/stm32f1xx_hal_msp.o
HAL_CAN_MspInit                                   build/stm32f1xx_hal_msp.o
HAL_CAN_RequestSleep                              build/stm32f1xx_hal_can.o
HAL_CAN_ResetError                                build/stm32f1xx_hal_can.o
HAL_CAN_RxFifo0FullCallback                       build/stm32f1xx_hal_can.o
HAL_CAN_RxFifo0MsgPendingCallback                 build/can_iface.o
                                                  build/stm32f1xx_hal_can.o
HAL_CAN_RxFifo1FullCallback                       build/stm32f1xx_hal_can.o
HAL_CAN_RxFifo1MsgPendingCallback                 build/can_iface.o
                                                  build/stm32f1xx_hal_can.o
HAL_CAN_SleepCallback                             build/stm32f1xx_hal_can.o
HAL_CAN_Start                                     build/stm32f1xx_hal_can.o
                                                  build/main.o
HAL_CAN_Stop                                      build/stm32f1xx_hal_can.o
HAL_CAN_TxMailbox0AbortCallback                   build/can_iface.o
                                                  build/stm32f1xx_hal_can.o
HAL_CAN_TxMailbox0CompleteCallback                build/can_iface.o
                                                  build/stm32f1xx_hal_can.o
HAL_CAN_TxMailbox1AbortCallback                   build/stm32f1xx_hal_can.o
HAL_CAN_TxMailbox1CompleteCallback                build/stm32f1xx_hal_can.o
HAL_CAN_TxMailbox2AbortCallback                   build/stm32f1xx_hal_can.o
HAL_CAN_TxMailbox2CompleteCallback                build/stm32f1xx_hal_can.o
HAL_CAN_WakeUp                                    build/stm32f1xx_hal_can.o
HAL_CAN_WakeUpFromRxMsgCallback                   build/stm32f1xx_hal_can.o
HAL_DBGMCU_DisableDBGSleepMode                    build/stm32f1xx_hal.o
HAL_DBGMCU_DisableDBGStandbyMode                  build/stm32f1xx_hal.o
HAL_DBGMCU_DisableDBGStopMode                     build/stm32f1xx_hal.o
HAL_DBGMCU_EnableDBGSleepMode                     build/stm32f1xx_hal.o
HAL_DBGMCU_EnableDBGStandbyMode                   build/stm32f1xx_hal.o
HAL_DBGMCU_EnableDBGStopMode                      build/stm32f1xx_hal.o
HAL_DMA_Abort                                     build/stm32f1xx_hal_dma.o
                                                  build/stm32f1xx_hal_uart.o
                                                  build/stm32f1xx_hal_adc_ex.o
                                                  build/stm32f1xx_hal_adc.o
                                                  build/stm32f1xx_hal_tim.o
HAL_DMA_Abort_IT                                  build/stm32f1xx_hal_dma.o
                                                  build/stm32f1xx_hal_uart.o
HAL_DMA_DeInit                                    build/stm32f1xx_hal_dma.o
                                                  build/stm32f1xx_hal_msp.o
HAL_DMA_GetError                                  build/stm32f1xx_hal_dma.o
HAL_DMA_GetState                                  build/stm32f1xx_hal_dma.o
HAL_DMA_IRQHandler                                build/stm32f1xx_hal_dma.o
                                                  build/stm32f1xx_it.o
HAL_DMA_Init                                      build/stm32f1xx_hal_dma.o
                                                  build/stm32f1xx_hal_msp.o
HAL_DMA_PollForTransfer                           build/stm32f1xx_hal_dma.o
HAL_DMA_RegisterCallback                          build/stm32f1xx_hal_dma.o
HAL_DMA_Start                                     build/stm32f1xx_hal_dma.o
HAL_DMA_Start_IT                                  build/stm32f1xx_hal_dma.o
                                                  build/stm32f1xx_hal_uart.o
                                                  build/stm32f1xx_hal_adc_ex.o
                                                  build/stm32f1xx_hal_adc.o
                                                  build/stm32f1xx_hal_tim_ex.o
                                                  build/stm32f1xx_hal_tim.o
HAL_DMA_UnRegisterCallback                        build/stm32f1xx_hal_dma.o
HAL_DeInit                                        build/stm32f1xx_hal.o
HAL_Delay                                         build/stm32f1xx_hal.o
HAL_FLASHEx_Erase                                 build/stm32f1xx_hal_flash_ex.o
HAL_FLASHEx_Erase_IT                              build/stm32f1xx_hal_flash_ex.o
HAL_FLASHEx_OBErase                               build/stm32f1xx_hal_flash_ex.o
HAL_FLASHEx_OBGetConfig                           build/stm32f1xx_hal_flash_ex.o
HAL_FLASHEx_OBGetUserData                         build/stm32f1xx_hal_flash_ex.o
HAL_FLASHEx_OBProgram                             build/stm32f1xx_hal_flash_ex.o
HAL_FLASH_EndOfOperationCallback                  build/stm32f1xx_hal_flash.o
HAL_FLASH_GetError                                build/stm32f1xx_hal_flash.o
HAL_FLASH_IRQHandler                              build/stm32f1xx_hal_flash.o
HAL_FLASH_Lock                                    build/stm32f1xx_hal_flash.o
HAL_FLASH_OB_Launch                               build/stm32f1xx_hal_flash.o
HAL_FLASH_OB_Lock                                 build/stm32f1xx_hal_flash.o
HAL_FLASH_OB_Unlock                               build/stm32f1xx_hal_flash.o
HAL_FLASH_OperationErrorCallback                  build/stm32f1xx_hal_flash.o
HAL_FLASH_Program                                 build/stm32f1xx_hal_flash.o
HAL_FLASH_Program_IT                              build/stm32f1xx_hal_flash.o
HAL_FLASH_Unlock                                  build/stm32f1xx_hal_flash.o
HAL_GPIOEx_ConfigEventout                         build/stm32f1xx_hal_gpio_ex.o
HAL_GPIOEx_DisableEventout                        build/stm32f1xx_hal_gpio_ex.o
HAL_GPIOEx_EnableEventout                         build/stm32f1xx_hal_gpio_ex.o
HAL_GPIO_DeInit                                   build/stm32f1xx_hal_gpio.o
                                                  build/stm32f1xx_hal_msp.o
HAL_GPIO_EXTI_Callback                            build/stm32f1xx_hal_gpio.o
HAL_GPIO_EXTI_IRQHandler                          build/stm32f1xx_hal_gpio.o
HAL_GPIO_Init                                     build/stm32f1xx_hal_gpio.o
                                                  build/stm32f1xx_hal_rcc.o
                                                  build/stm32f1xx_hal_msp.o
                                                  build/main.o
HAL_GPIO_LockPin                                  build/stm32f1xx_hal_gpio.o
HAL_GPIO_ReadPin                                  build/stm32f1xx_hal_gpio.o
                                                  build/ContactorStates.o
HAL_GPIO_TogglePin                                build/stm32f1xx_hal_gpio.o
                                                  build/CanTask.o
                                                  build/main.o
HAL_GPIO_WritePin                                 build/stm32f1xx_hal_gpio.o
                                                  build/ContactorUpdates.o
                                                  build/morse.o
                                                  build/main.o
HAL_GetDEVID                                      build/stm32f1xx_hal.o
HAL_GetHalVersion                                 build/stm32f1xx_hal.o
HAL_GetREVID                                      build/stm32f1xx_hal.o
HAL_GetTick                                       build/stm32f1xx_hal.o
                                                  build/stm32f1xx_hal_uart.o
                                                  build/stm32f1xx_hal_can.o
                                                  build/stm32f1xx_hal_adc_ex.o
                                                  build/stm32f1xx_hal_adc.o
                                                  build/stm32f1xx_hal_flash.o
                                                  build/stm32f1xx_hal_dma.o
                                                  build/stm32f1xx_hal_rcc_ex.o
                                                  build/stm32f1xx_hal_rcc.o
HAL_GetTickFreq                                   build/stm32f1xx_hal.o
HAL_GetTickPrio                                   build/stm32f1xx_hal.o
HAL_GetUID                                        build/stm32f1xx_hal.o
HAL_HalfDuplex_EnableReceiver                     build/stm32f1xx_hal_uart.o
HAL_HalfDuplex_EnableTransmitter                  build/stm32f1xx_hal_uart.o
HAL_HalfDuplex_Init                               build/stm32f1xx_hal_uart.o
HAL_IncTick                                       build/stm32f1xx_hal.o
                                                  build/main.o
HAL_Init                                          build/stm32f1xx_hal.o
                                                  build/main.o
HAL_InitTick                                      build/stm32f1xx_hal_timebase_tim.o
                                                  build/stm32f1xx_hal.o
                                                  build/stm32f1xx_hal_rcc.o
HAL_LIN_Init                                      build/stm32f1xx_hal_uart.o
HAL_LIN_SendBreak                                 build/stm32f1xx_hal_uart.o
HAL_MspDeInit                                     build/stm32f1xx_hal.o
HAL_MspInit                                       build/stm32f1xx_hal_msp.o
HAL_MultiProcessor_EnterMuteMode                  build/stm32f1xx_hal_uart.o
HAL_MultiProcessor_ExitMuteMode                   build/stm32f1xx_hal_uart.o
HAL_MultiProcessor_Init                           build/stm32f1xx_hal_uart.o
HAL_NVIC_ClearPendingIRQ                          build/stm32f1xx_hal_cortex.o
HAL_NVIC_DisableIRQ                               build/stm32f1xx_hal_cortex.o
                                                  build/stm32f1xx_hal_msp.o
HAL_NVIC_EnableIRQ                                build/stm32f1xx_hal_cortex.o
                                                  build/stm32f1xx_hal_timebase_tim.o
                                                  build/stm32f1xx_hal_msp.o
                                                  build/main.o
HAL_NVIC_GetActive                                build/stm32f1xx_hal_cortex.o
HAL_NVIC_GetPendingIRQ                            build/stm32f1xx_hal_cortex.o
HAL_NVIC_GetPriority                              build/stm32f1xx_hal_cortex.o
HAL_NVIC_GetPriorityGrouping                      build/stm32f1xx_hal_cortex.o
HAL_NVIC_SetPendingIRQ                            build/stm32f1xx_hal_cortex.o
HAL_NVIC_SetPriority                              build/stm32f1xx_hal_cortex.o
                                                  build/stm32f1xx_hal_timebase_tim.o
                                                  build/stm32f1xx_hal.o
                                                  build/stm32f1xx_hal_msp.o
                                                  build/main.o
HAL_NVIC_SetPriorityGrouping                      build/stm32f1xx_hal_cortex.o
                                                  build/stm32f1xx_hal.o
HAL_NVIC_SystemReset                              build/stm32f1xx_hal_cortex.o
                                                  build/stm32f1xx_hal_flash.o
HAL_PWR_ConfigPVD                                 build/stm32f1xx_hal_pwr.o
HAL_PWR_DeInit                                    build/stm32f1xx_hal_pwr.o
HAL_PWR_DisableBkUpAccess                         build/stm32f1xx_hal_pwr.o
HAL_PWR_DisablePVD                                build/stm32f1xx_hal_pwr.o
HAL_PWR_DisableSEVOnPend                          build/stm32f1xx_hal_pwr.o
HAL_PWR_DisableSleepOnExit                        build/stm32f1xx_hal_pwr.o
HAL_PWR_DisableWakeUpPin                          build/stm32f1xx_hal_pwr.o
HAL_PWR_EnableBkUpAccess                          build/stm32f1xx_hal_pwr.o
HAL_PWR_EnablePVD                                 build/stm32f1xx_hal_pwr.o
HAL_PWR_EnableSEVOnPend                           build/stm32f1xx_hal_pwr.o
HAL_PWR_EnableSleepOnExit                         build/stm32f1xx_hal_pwr.o
HAL_PWR_EnableWakeUpPin                           build/stm32f1xx_hal_pwr.o
HAL_PWR_EnterSLEEPMode                            build/stm32f1xx_hal_pwr.o
HAL_PWR_EnterSTANDBYMode                          build/stm32f1xx_hal_pwr.o
HAL_PWR_EnterSTOPMode                             build/stm32f1xx_hal_pwr.o
HAL_PWR_PVDCallback                               build/stm32f1xx_hal_pwr.o
HAL_PWR_PVD_IRQHandler                            build/stm32f1xx_hal_pwr.o
HAL_RCCEx_GetPeriphCLKConfig                      build/stm32f1xx_hal_rcc_ex.o
HAL_RCCEx_GetPeriphCLKFreq                        build/stm32f1xx_hal_rcc_ex.o
                                                  build/stm32f1xx_hal_adc_ex.o
                                                  build/stm32f1xx_hal_adc.o
HAL_RCCEx_PeriphCLKConfig                         build/stm32f1xx_hal_rcc_ex.o
                                                  build/main.o
HAL_RCC_CSSCallback                               build/stm32f1xx_hal_rcc.o
HAL_RCC_ClockConfig                               build/stm32f1xx_hal_rcc.o
                                                  build/main.o
HAL_RCC_DeInit                                    build/stm32f1xx_hal_rcc.o
HAL_RCC_DisableCSS                                build/stm32f1xx_hal_rcc.o
HAL_RCC_EnableCSS                                 build/stm32f1xx_hal_rcc.o
HAL_RCC_GetClockConfig                            build/stm32f1xx_hal_rcc.o
                                                  build/stm32f1xx_hal_timebase_tim.o
HAL_RCC_GetHCLKFreq                               build/stm32f1xx_hal_rcc.o
HAL_RCC_GetOscConfig                              build/stm32f1xx_hal_rcc.o
HAL_RCC_GetPCLK1Freq                              build/stm32f1xx_hal_rcc.o
                                                  build/stm32f1xx_hal_uart.o
                                                  build/stm32f1xx_hal_timebase_tim.o
HAL_RCC_GetPCLK2Freq                              build/stm32f1xx_hal_rcc.o
                                                  build/stm32f1xx_hal_uart.o
                                                  build/stm32f1xx_hal_rcc_ex.o
HAL_RCC_GetSysClockFreq                           build/stm32f1xx_hal_rcc.o
HAL_RCC_MCOConfig                                 build/stm32f1xx_hal_rcc.o
HAL_RCC_NMI_IRQHandler                            build/stm32f1xx_hal_rcc.o
HAL_RCC_OscConfig                                 build/stm32f1xx_hal_rcc.o
                                                  build/main.o
HAL_ResumeTick                                    build/stm32f1xx_hal_timebase_tim.o
                                                  build/stm32f1xx_hal.o
HAL_SYSTICK_CLKSourceConfig                       build/stm32f1xx_hal_cortex.o
HAL_SYSTICK_Callback                              build/stm32f1xx_hal_cortex.o
HAL_SYSTICK_Config                                build/stm32f1xx_hal_cortex.o
                                                  build/stm32f1xx_hal.o
HAL_SYSTICK_IRQHandler                            build/stm32f1xx_hal_cortex.o
HAL_SetTickFreq                                   build/stm32f1xx_hal.o
HAL_SuspendTick                                   build/stm32f1xx_hal_timebase_tim.o
                                                  build/stm32f1xx_hal.o
HAL_TIMEx_BreakCallback                           build/stm32f1xx_hal_tim_ex.o
                                                  build/stm32f1xx_hal_tim.o
HAL_TIMEx_CommutationCallback                     build/stm32f1xx_hal_tim_ex.o
                                                  build/stm32f1xx_hal_tim.o
HAL_TIMEx_ConfigBreakDeadTime                     build/stm32f1xx_hal_tim_ex.o
                                                  build/main.o
HAL_TIMEx_ConfigCommutationEvent                  build/stm32f1xx_hal_tim_ex.o
HAL_TIMEx_ConfigCommutationEvent_DMA              build/stm32f1xx_hal_tim_ex.o
HAL_TIMEx_ConfigCommutationEvent_IT               build/stm32f1xx_hal_tim_ex.o
HAL_TIMEx_HallSensor_DeInit                       build/stm32f1xx_hal_tim_ex.o
HAL_TIMEx_HallSensor_GetState                     build/stm32f1xx_hal_tim_ex.o
HAL_TIMEx_HallSensor_Init                         build/stm32f1xx_hal_tim_ex.o
HAL_TIMEx_HallSensor_MspDeInit                    build/stm32f1xx_hal_tim_ex.o
HAL_TIMEx_HallSensor_MspInit                      build/stm32f1xx_hal_tim_ex.o
HAL_TIMEx_HallSensor_Start                        build/stm32f1xx_hal_tim_ex.o
HAL_TIMEx_HallSensor_Start_DMA                    build/stm32f1xx_hal_tim_ex.o
HAL_TIMEx_HallSensor_Start_IT                     build/stm32f1xx_hal_tim_ex.o
HAL_TIMEx_HallSensor_Stop                         build/stm32f1xx_hal_tim_ex.o
HAL_TIMEx_HallSensor_Stop_DMA                     build/stm32f1xx_hal_tim_ex.o
HAL_TIMEx_HallSensor_Stop_IT                      build/stm32f1xx_hal_tim_ex.o
HAL_TIMEx_MasterConfigSynchronization             build/stm32f1xx_hal_tim_ex.o
                                                  build/main.o
HAL_TIMEx_OCN_Start                               build/stm32f1xx_hal_tim_ex.o
HAL_TIMEx_OCN_Start_DMA                           build/stm32f1xx_hal_tim_ex.o
HAL_TIMEx_OCN_Start_IT                            build/stm32f1xx_hal_tim_ex.o
HAL_TIMEx_OCN_Stop                                build/stm32f1xx_hal_tim_ex.o
HAL_TIMEx_OCN_Stop_DMA                            build/stm32f1xx_hal_tim_ex.o
HAL_TIMEx_OCN_Stop_IT                             build/stm32f1xx_hal_tim_ex.o
HAL_TIMEx_OnePulseN_Start                         build/stm32f1xx_hal_tim_ex.o
HAL_TIMEx_OnePulseN_Start_IT                      build/stm32f1xx_hal_tim_ex.o
HAL_TIMEx_OnePulseN_Stop                          build/stm32f1xx_hal_tim_ex.o
HAL_TIMEx_OnePulseN_Stop_IT                       build/stm32f1xx_hal_tim_ex.o
HAL_TIMEx_PWMN_Start                              build/stm32f1xx_hal_tim_ex.o
HAL_TIMEx_PWMN_Start_DMA                          build/stm32f1xx_hal_tim_ex.o
HAL_TIMEx_PWMN_Start_IT                           build/stm32f1xx_hal_tim_ex.o
HAL_TIMEx_PWMN_Stop                               build/stm32f1xx_hal_tim_ex.o
HAL_TIMEx_PWMN_Stop_DMA                           build/stm32f1xx_hal_tim_ex.o
HAL_TIMEx_PWMN_Stop_IT                            build/stm32f1xx_hal_tim_ex.o
HAL_TIM_Base_DeInit                               build/stm32f1xx_hal_tim.o
HAL_TIM_Base_GetState                             build/stm32f1xx_hal_tim.o
HAL_TIM_Base_Init                                 build/stm32f1xx_hal_tim.o
                                                  build/stm32f1xx_hal_timebase_tim.o
                                                  build/main.o
HAL_TIM_Base_MspDeInit                            build/stm32f1xx_hal_msp.o
HAL_TIM_Base_MspInit                              build/stm32f1xx_hal_msp.o
HAL_TIM_Base_Start                                build/stm32f1xx_hal_tim.o
HAL_TIM_Base_Start_DMA                            build/stm32f1xx_hal_tim.o
HAL_TIM_Base_Start_IT                             build/stm32f1xx_hal_tim.o
                                                  build/stm32f1xx_hal_timebase_tim.o
HAL_TIM_Base_Stop                                 build/stm32f1xx_hal_tim.o
HAL_TIM_Base_Stop_DMA                             build/stm32f1xx_hal_tim.o
HAL_TIM_Base_Stop_IT                              build/stm32f1xx_hal_tim.o
HAL_TIM_ConfigClockSource                         build/stm32f1xx_hal_tim.o
                                                  build/main.o
HAL_TIM_ConfigOCrefClear                          build/stm32f1xx_hal_tim.o
HAL_TIM_ConfigTI1Input                            build/stm32f1xx_hal_tim.o
HAL_TIM_DMABurst_ReadStart                        build/stm32f1xx_hal_tim.o
HAL_TIM_DMABurst_ReadStop                         build/stm32f1xx_hal_tim.o
HAL_TIM_DMABurst_WriteStart                       build/stm32f1xx_hal_tim.o
HAL_TIM_DMABurst_WriteStop                        build/stm32f1xx_hal_tim.o
HAL_TIM_Encoder_DeInit                            build/stm32f1xx_hal_tim.o
HAL_TIM_Encoder_GetState                          build/stm32f1xx_hal_tim.o
HAL_TIM_Encoder_Init                              build/stm32f1xx_hal_tim.o
HAL_TIM_Encoder_MspDeInit                         build/stm32f1xx_hal_tim.o
HAL_TIM_Encoder_MspInit                           build/stm32f1xx_hal_tim.o
HAL_TIM_Encoder_Start                             build/stm32f1xx_hal_tim.o
HAL_TIM_Encoder_Start_DMA                         build/stm32f1xx_hal_tim.o
HAL_TIM_Encoder_Start_IT                          build/stm32f1xx_hal_tim.o
HAL_TIM_Encoder_Stop                              build/stm32f1xx_hal_tim.o
HAL_TIM_Encoder_Stop_DMA                          build/stm32f1xx_hal_tim.o
HAL_TIM_Encoder_Stop_IT                           build/stm32f1xx_hal_tim.o
HAL_TIM_ErrorCallback                             build/stm32f1xx_hal_tim.o
HAL_TIM_GenerateEvent                             build/stm32f1xx_hal_tim.o
HAL_TIM_IC_CaptureCallback                        build/stm32f1xx_hal_tim.o
HAL_TIM_IC_ConfigChannel                          build/stm32f1xx_hal_tim.o
HAL_TIM_IC_DeInit                                 build/stm32f1xx_hal_tim.o
HAL_TIM_IC_GetState                               build/stm32f1xx_hal_tim.o
HAL_TIM_IC_Init                                   build/stm32f1xx_hal_tim.o
HAL_TIM_IC_MspDeInit                              build/stm32f1xx_hal_tim.o
HAL_TIM_IC_MspInit                                build/stm32f1xx_hal_tim.o
HAL_TIM_IC_Start                                  build/stm32f1xx_hal_tim.o
HAL_TIM_IC_Start_DMA                              build/stm32f1xx_hal_tim.o
HAL_TIM_IC_Start_IT                               build/stm32f1xx_hal_tim.o
HAL_TIM_IC_Stop                                   build/stm32f1xx_hal_tim.o
HAL_TIM_IC_Stop_DMA                               build/stm32f1xx_hal_tim.o
HAL_TIM_IC_Stop_IT                                build/stm32f1xx_hal_tim.o
HAL_TIM_IRQHandler                                build/stm32f1xx_hal_tim.o
                                                  build/stm32f1xx_it.o
HAL_TIM_MspPostInit                               build/stm32f1xx_hal_msp.o
                                                  build/main.o
HAL_TIM_OC_ConfigChannel                          build/stm32f1xx_hal_tim.o
                                                  build/main.o
HAL_TIM_OC_DeInit                                 build/stm32f1xx_hal_tim.o
HAL_TIM_OC_DelayElapsedCallback                   build/stm32f1xx_hal_tim.o
HAL_TIM_OC_GetState                               build/stm32f1xx_hal_tim.o
HAL_TIM_OC_Init                                   build/stm32f1xx_hal_tim.o
                                                  build/main.o
HAL_TIM_OC_MspDeInit                              build/stm32f1xx_hal_tim.o
HAL_TIM_OC_MspInit                                build/stm32f1xx_hal_tim.o
HAL_TIM_OC_Start                                  build/stm32f1xx_hal_tim.o
HAL_TIM_OC_Start_DMA                              build/stm32f1xx_hal_tim.o
HAL_TIM_OC_Start_IT                               build/stm32f1xx_hal_tim.o
HAL_TIM_OC_Stop                                   build/stm32f1xx_hal_tim.o
HAL_TIM_OC_Stop_DMA                               build/stm32f1xx_hal_tim.o
HAL_TIM_OC_Stop_IT                                build/stm32f1xx_hal_tim.o
HAL_TIM_OnePulse_ConfigChannel                    build/stm32f1xx_hal_tim.o
HAL_TIM_OnePulse_DeInit                           build/stm32f1xx_hal_tim.o
HAL_TIM_OnePulse_GetState                         build/stm32f1xx_hal_tim.o
HAL_TIM_OnePulse_Init                             build/stm32f1xx_hal_tim.o
HAL_TIM_OnePulse_MspDeInit                        build/stm32f1xx_hal_tim.o
HAL_TIM_OnePulse_MspInit                          build/stm32f1xx_hal_tim.o
HAL_TIM_OnePulse_Start                            build/stm32f1xx_hal_tim.o
HAL_TIM_OnePulse_Start_IT                         build/stm32f1xx_hal_tim.o
HAL_TIM_OnePulse_Stop                             build/stm32f1xx_hal_tim.o
HAL_TIM_OnePulse_Stop_IT                          build/stm32f1xx_hal_tim.o
HAL_TIM_PWM_ConfigChannel                         build/stm32f1xx_hal_tim.o
                                                  build/ContactorUpdates.o
                                                  build/main.o
HAL_TIM_PWM_DeInit                                build/stm32f1xx_hal_tim.o
HAL_TIM_PWM_GetState                              build/stm32f1xx_hal_tim.o
HAL_TIM_PWM_Init                                  build/stm32f1xx_hal_tim.o
                                                  build/main.o
HAL_TIM_PWM_MspDeInit                             build/stm32f1xx_hal_tim.o
HAL_TIM_PWM_MspInit                               build/stm32f1xx_hal_tim.o
HAL_TIM_PWM_PulseFinishedCallback                 build/stm32f1xx_hal_tim.o
HAL_TIM_PWM_Start                                 build/stm32f1xx_hal_tim.o
                                                  build/ContactorUpdates.o
HAL_TIM_PWM_Start_DMA                             build/stm32f1xx_hal_tim.o
HAL_TIM_PWM_Start_IT                              build/stm32f1xx_hal_tim.o
HAL_TIM_PWM_Stop                                  build/stm32f1xx_hal_tim.o
HAL_TIM_PWM_Stop_DMA                              build/stm32f1xx_hal_tim.o
HAL_TIM_PWM_Stop_IT                               build/stm32f1xx_hal_tim.o
HAL_TIM_PeriodElapsedCallback                     build/main.o
HAL_TIM_ReadCapturedValue                         build/stm32f1xx_hal_tim.o
HAL_TIM_SlaveConfigSynchronization                build/stm32f1xx_hal_tim.o
HAL_TIM_SlaveConfigSynchronization_IT             build/stm32f1xx_hal_tim.o
HAL_TIM_TriggerCallback                           build/stm32f1xx_hal_tim.o
HAL_UART_Abort                                    build/stm32f1xx_hal_uart.o
HAL_UART_AbortCpltCallback                        build/stm32f1xx_hal_uart.o
HAL_UART_AbortReceive                             build/stm32f1xx_hal_uart.o
HAL_UART_AbortReceiveCpltCallback                 build/stm32f1xx_hal_uart.o
HAL_UART_AbortReceive_IT                          build/stm32f1xx_hal_uart.o
HAL_UART_AbortTransmit                            build/stm32f1xx_hal_uart.o
HAL_UART_AbortTransmitCpltCallback                build/stm32f1xx_hal_uart.o
HAL_UART_AbortTransmit_IT                         build/stm32f1xx_hal_uart.o
HAL_UART_Abort_IT                                 build/stm32f1xx_hal_uart.o
HAL_UART_DMAPause                                 build/stm32f1xx_hal_uart.o
HAL_UART_DMAResume                                build/stm32f1xx_hal_uart.o
HAL_UART_DMAStop                                  build/stm32f1xx_hal_uart.o
HAL_UART_DeInit                                   build/stm32f1xx_hal_uart.o
HAL_UART_ErrorCallback                            build/SerialTaskReceive.o
                                                  build/stm32f1xx_hal_uart.o
HAL_UART_GetError                                 build/stm32f1xx_hal_uart.o
HAL_UART_GetState                                 build/stm32f1xx_hal_uart.o
HAL_UART_IRQHandler                               build/stm32f1xx_hal_uart.o
                                                  build/stm32f1xx_it.o
HAL_UART_Init                                     build/stm32f1xx_hal_uart.o
                                                  build/main.o
HAL_UART_MspDeInit                                build/stm32f1xx_hal_msp.o
HAL_UART_MspInit                                  build/stm32f1xx_hal_msp.o
HAL_UART_Receive                                  build/stm32f1xx_hal_uart.o
HAL_UART_Receive_DMA                              build/stm32f1xx_hal_uart.o
                                                  build/SerialTaskReceive.o
HAL_UART_Receive_IT                               build/stm32f1xx_hal_uart.o
                                                  build/SerialTaskReceive.o
HAL_UART_RxCpltCallback                           build/SerialTaskReceive.o
                                                  build/stm32f1xx_hal_uart.o
HAL_UART_RxHalfCpltCallback                       build/SerialTaskReceive.o
                                                  build/stm32f1xx_hal_uart.o
HAL_UART_Transmit                                 build/stm32f1xx_hal_uart.o
HAL_UART_Transmit_DMA                             build/stm32f1xx_hal_uart.o
                                                  build/SerialTaskSend.o
HAL_UART_Transmit_IT                              build/stm32f1xx_hal_uart.o
                                                  build/SerialTaskSend.o
HAL_UART_TxCpltCallback                           build/SerialTaskSend.o
                                                  build/stm32f1xx_hal_uart.o
HAL_UART_TxHalfCpltCallback                       build/stm32f1xx_hal_uart.o
HardFault_Handler                                 build/stm32f1xx_it.o
I2C1_ER_IRQHandler                                build/startup_stm32f103xb.o
I2C1_EV_IRQHandler                                build/startup_stm32f103xb.o
I2C2_ER_IRQHandler                                build/startup_stm32f103xb.o
I2C2_EV_IRQHandler                                build/startup_stm32f103xb.o
MailboxTaskHandle                                 build/MailboxTask.o
                                                  build/main.o
MailboxTask_add                                   build/MailboxTask.o
                                                  build/contactor_func_init.o
MailboxTask_add_CANlist                           build/MailboxTask.o
                                                  build/main.o
MailboxTask_disable_notifications                 build/MailboxTask.o
MailboxTask_enable_notifications                  build/MailboxTask.o
MemManage_Handler                                 build/stm32f1xx_it.o
NMI_Handler                                       build/stm32f1xx_it.o
PVD_IRQHandler                                    build/startup_stm32f103xb.o
PendSV_Handler                                    build/port.o
RCC_IRQHandler                                    build/startup_stm32f103xb.o
RTC_Alarm_IRQHandler                              build/startup_stm32f103xb.o
RTC_IRQHandler                                    build/startup_stm32f103xb.o
Reset_Handler                                     build/startup_stm32f103xb.o
SPI1_IRQHandler                                   build/startup_stm32f103xb.o
SPI2_IRQHandler                                   build/startup_stm32f103xb.o
SVC_Handler                                       build/port.o
SerialTaskHandle                                  build/SerialTaskSend.o
                                                  build/main.o
SerialTaskReceiveHandle                           build/SerialTaskReceive.o
                                                  build/main.o
SerialTaskSendQHandle                             build/SerialTaskSend.o
StartADCTask                                      build/ADCTask.o
StartCanRxTask                                    build/CanTask.o
StartCanTxTask                                    build/CanTask.o
StartContactorTask                                build/ContactorTask.o
StartDefaultTask                                  build/main.o
StartMailboxTask                                  build/MailboxTask.o
StartSerialTaskReceive                            build/SerialTaskReceive.o
StartSerialTaskSend                               build/SerialTaskSend.o
SysTick_Handler                                   build/port.o
                                                  build/cmsis_os.o
SystemClock_Config                                build/main.o
SystemCoreClock                                   build/system_stm32f1xx.o
                                                  build/port.o
                                                  build/stm32f1xx_hal_adc_ex.o
                                                  build/stm32f1xx_hal_adc.o
                                                  build/stm32f1xx_hal_rcc.o
                                                  build/stm32f1xx_hal.o
SystemCoreClockUpdate                             build/system_stm32f1xx.o
SystemInit                                        build/system_stm32f1xx.o
                                                  build/startup_stm32f103xb.o
TAMPER_IRQHandler                                 build/startup_stm32f103xb.o
TIM1_BRK_IRQHandler                               build/startup_stm32f103xb.o
TIM1_CC_IRQHandler                                build/startup_stm32f103xb.o
TIM1_TRG_COM_IRQHandler                           build/startup_stm32f103xb.o
TIM1_UP_IRQHandler                                build/startup_stm32f103xb.o
TIM2_IRQHandler                                   build/stm32f1xx_it.o
TIM3_IRQHandler                                   build/startup_stm32f103xb.o
TIM4_IRQHandler                                   build/startup_stm32f103xb.o
TIMEx_DMACommutationCplt                          build/stm32f1xx_hal_tim_ex.o
                                                  build/stm32f1xx_hal_tim.o
TIM_Base_SetConfig                                build/stm32f1xx_hal_tim.o
                                                  build/stm32f1xx_hal_tim_ex.o
TIM_CCxChannelCmd                                 build/stm32f1xx_hal_tim.o
                                                  build/stm32f1xx_hal_tim_ex.o
TIM_DMACaptureCplt                                build/stm32f1xx_hal_tim.o
                                                  build/stm32f1xx_hal_tim_ex.o
TIM_DMADelayPulseCplt                             build/stm32f1xx_hal_tim.o
                                                  build/stm32f1xx_hal_tim_ex.o
TIM_DMAError                                      build/stm32f1xx_hal_tim.o
                                                  build/stm32f1xx_hal_tim_ex.o
TIM_OC2_SetConfig                                 build/stm32f1xx_hal_tim.o
                                                  build/stm32f1xx_hal_tim_ex.o
TIM_TI1_SetConfig                                 build/stm32f1xx_hal_tim.o
                                                  build/stm32f1xx_hal_tim_ex.o
USART1_IRQHandler                                 build/stm32f1xx_it.o
USART2_IRQHandler                                 build/startup_stm32f103xb.o
USART3_IRQHandler                                 build/stm32f1xx_it.o
USBWakeUp_IRQHandler                              build/startup_stm32f103xb.o
USB_HP_CAN1_TX_IRQHandler                         build/stm32f1xx_it.o
USB_LP_CAN1_RX0_IRQHandler                        build/stm32f1xx_it.o
UsageFault_Handler                                build/stm32f1xx_it.o
WWDG_IRQHandler                                   build/startup_stm32f103xb.o
_Balloc                                           /home/deh/launchpad/gcc-arm-none-eabi-5_4-2016q3/bin/../lib/gcc/arm-none-eabi/5.4.1/../../../../arm-none-eabi/lib/armv7-m/libc.a(lib_a-mprec.o)
                                                  /home/deh/launchpad/gcc-arm-none-eabi-5_4-2016q3/bin/../lib/gcc/arm-none-eabi/5.4.1/../../../../arm-none-eabi/lib/armv7-m/libc.a(lib_a-dtoa.o)
_Bfree                                            /home/deh/launchpad/gcc-arm-none-eabi-5_4-2016q3/bin/../lib/gcc/arm-none-eabi/5.4.1/../../../../arm-none-eabi/lib/armv7-m/libc.a(lib_a-mprec.o)
                                                  /home/deh/launchpad/gcc-arm-none-eabi-5_4-2016q3/bin/../lib/gcc/arm-none-eabi/5.4.1/../../../../arm-none-eabi/lib/armv7-m/libc.a(lib_a-dtoa.o)
_Jv_RegisterClasses                               /home/deh/launchpad/gcc-arm-none-eabi-5_4-2016q3/bin/../lib/gcc/arm-none-eabi/5.4.1/armv7-m/crtbegin.o
_PathLocale                                       /home/deh/launchpad/gcc-arm-none-eabi-5_4-2016q3/bin/../lib/gcc/arm-none-eabi/5.4.1/../../../../arm-none-eabi/lib/armv7-m/libc.a(lib_a-locale.o)
__adddf3                                          /home/deh/launchpad/gcc-arm-none-eabi-5_4-2016q3/bin/../lib/gcc/arm-none-eabi/5.4.1/armv7-m/libgcc.a(_arm_addsubdf3.o)
__addsf3                                          /home/deh/launchpad/gcc-arm-none-eabi-5_4-2016q3/bin/../lib/gcc/arm-none-eabi/5.4.1/armv7-m/libgcc.a(_arm_addsubsf3.o)
__aeabi_cdcmpeq                                   /home/deh/launchpad/gcc-arm-none-eabi-5_4-2016q3/bin/../lib/gcc/arm-none-eabi/5.4.1/armv7-m/libgcc.a(_arm_cmpdf2.o)
__aeabi_cdcmple                                   /home/deh/launchpad/gcc-arm-none-eabi-5_4-2016q3/bin/../lib/gcc/arm-none-eabi/5.4.1/armv7-m/libgcc.a(_arm_cmpdf2.o)
__aeabi_cdrcmple                                  /home/deh/launchpad/gcc-arm-none-eabi-5_4-2016q3/bin/../lib/gcc/arm-none-eabi/5.4.1/armv7-m/libgcc.a(_arm_cmpdf2.o)
__aeabi_d2f                                       /home/deh/launchpad/gcc-arm-none-eabi-5_4-2016q3/bin/../lib/gcc/arm-none-eabi/5.4.1/armv7-m/libgcc.a(_arm_truncdfsf2.o)
                                                  build/contactor_msgs.o
                                                  build/contactor_cmd_msg.o
__aeabi_d2iz                                      /home/deh/launchpad/gcc-arm-none-eabi-5_4-2016q3/bin/../lib/gcc/arm-none-eabi/5.4.1/armv7-m/libgcc.a(_arm_fixdfsi.o)
                                                  /home/deh/launchpad/gcc-arm-none-eabi-5_4-2016q3/bin/../lib/gcc/arm-none-eabi/5.4.1/../../../../arm-none-eabi/lib/armv7-m/libc.a(lib_a-dtoa.o)
                                                  build/contactor_func_init.o
                                                  build/adcparamsinit.o
__aeabi_d2uiz                                     /home/deh/launchpad/gcc-arm-none-eabi-5_4-2016q3/bin/../lib/gcc/arm-none-eabi/5.4.1/armv7-m/libgcc.a(_arm_fixunsdfsi.o)
                                                  build/contactor_func_init.o
                                                  build/adcparamsinit.o
__aeabi_dadd                                      /home/deh/launchpad/gcc-arm-none-eabi-5_4-2016q3/bin/../lib/gcc/arm-none-eabi/5.4.1/armv7-m/libgcc.a(_arm_addsubdf3.o)
                                                  /home/deh/launchpad/gcc-arm-none-eabi-5_4-2016q3/bin/../lib/gcc/arm-none-eabi/5.4.1/../../../../arm-none-eabi/lib/armv7-m/libc.a(lib_a-dtoa.o)
                                                  build/contactor_cmd_msg.o
                                                  build/main.o
__aeabi_dcmpeq                                    /home/deh/launchpad/gcc-arm-none-eabi-5_4-2016q3/bin/../lib/gcc/arm-none-eabi/5.4.1/armv7-m/libgcc.a(_arm_cmpdf2.o)
                                                  /home/deh/launchpad/gcc-arm-none-eabi-5_4-2016q3/bin/../lib/gcc/arm-none-eabi/5.4.1/../../../../arm-none-eabi/lib/armv7-m/libc.a(lib_a-dtoa.o)
                                                  /home/deh/launchpad/gcc-arm-none-eabi-5_4-2016q3/bin/../lib/gcc/arm-none-eabi/5.4.1/../../../../arm-none-eabi/lib/armv7-m/libc.a(lib_a-svfprintf.o)
__aeabi_dcmpge                                    /home/deh/launchpad/gcc-arm-none-eabi-5_4-2016q3/bin/../lib/gcc/arm-none-eabi/5.4.1/armv7-m/libgcc.a(_arm_cmpdf2.o)
                                                  /home/deh/launchpad/gcc-arm-none-eabi-5_4-2016q3/bin/../lib/gcc/arm-none-eabi/5.4.1/../../../../arm-none-eabi/lib/armv7-m/libc.a(lib_a-dtoa.o)
__aeabi_dcmpgt                                    /home/deh/launchpad/gcc-arm-none-eabi-5_4-2016q3/bin/../lib/gcc/arm-none-eabi/5.4.1/armv7-m/libgcc.a(_arm_cmpdf2.o)
                                                  /home/deh/launchpad/gcc-arm-none-eabi-5_4-2016q3/bin/../lib/gcc/arm-none-eabi/5.4.1/../../../../arm-none-eabi/lib/armv7-m/libc.a(lib_a-dtoa.o)
                                                  build/adcparamsinit.o
__aeabi_dcmple                                    /home/deh/launchpad/gcc-arm-none-eabi-5_4-2016q3/bin/../lib/gcc/arm-none-eabi/5.4.1/armv7-m/libgcc.a(_arm_cmpdf2.o)
                                                  /home/deh/launchpad/gcc-arm-none-eabi-5_4-2016q3/bin/../lib/gcc/arm-none-eabi/5.4.1/../../../../arm-none-eabi/lib/armv7-m/libc.a(lib_a-svfprintf.o)
__aeabi_dcmplt                                    /home/deh/launchpad/gcc-arm-none-eabi-5_4-2016q3/bin/../lib/gcc/arm-none-eabi/5.4.1/armv7-m/libgcc.a(_arm_cmpdf2.o)
                                                  /home/deh/launchpad/gcc-arm-none-eabi-5_4-2016q3/bin/../lib/gcc/arm-none-eabi/5.4.1/../../../../arm-none-eabi/lib/armv7-m/libc.a(lib_a-dtoa.o)
                                                  /home/deh/launchpad/gcc-arm-none-eabi-5_4-2016q3/bin/../lib/gcc/arm-none-eabi/5.4.1/../../../../arm-none-eabi/lib/armv7-m/libc.a(lib_a-svfprintf.o)
                                                  build/adcparamsinit.o
                                                  build/main.o
__aeabi_dcmpun                                    /home/deh/launchpad/gcc-arm-none-eabi-5_4-2016q3/bin/../lib/gcc/arm-none-eabi/5.4.1/armv7-m/libgcc.a(_arm_unorddf2.o)
                                                  /home/deh/launchpad/gcc-arm-none-eabi-5_4-2016q3/bin/../lib/gcc/arm-none-eabi/5.4.1/../../../../arm-none-eabi/lib/armv7-m/libc.a(lib_a-svfprintf.o)
__aeabi_ddiv                                      /home/deh/launchpad/gcc-arm-none-eabi-5_4-2016q3/bin/../lib/gcc/arm-none-eabi/5.4.1/armv7-m/libgcc.a(_arm_muldivdf3.o)
                                                  /home/deh/launchpad/gcc-arm-none-eabi-5_4-2016q3/bin/../lib/gcc/arm-none-eabi/5.4.1/../../../../arm-none-eabi/lib/armv7-m/libc.a(lib_a-mprec.o)
                                                  /home/deh/launchpad/gcc-arm-none-eabi-5_4-2016q3/bin/../lib/gcc/arm-none-eabi/5.4.1/../../../../arm-none-eabi/lib/armv7-m/libc.a(lib_a-dtoa.o)
                                                  build/contactor_func_init.o
                                                  build/contactor_cmd_msg.o
                                                  build/adcparamsinit.o
                                                  build/main.o
__aeabi_dmul                                      /home/deh/launchpad/gcc-arm-none-eabi-5_4-2016q3/bin/../lib/gcc/arm-none-eabi/5.4.1/armv7-m/libgcc.a(_arm_muldivdf3.o)
                                                  /home/deh/launchpad/gcc-arm-none-eabi-5_4-2016q3/bin/../lib/gcc/arm-none-eabi/5.4.1/../../../../arm-none-eabi/lib/armv7-m/libc.a(lib_a-mprec.o)
                                                  /home/deh/launchpad/gcc-arm-none-eabi-5_4-2016q3/bin/../lib/gcc/arm-none-eabi/5.4.1/../../../../arm-none-eabi/lib/armv7-m/libc.a(lib_a-dtoa.o)
                                                  build/contactor_msgs.o
                                                  build/contactor_func_init.o
                                                  build/contactor_cmd_msg.o
                                                  build/adcparamsinit.o
                                                  build/main.o
__aeabi_drsub                                     /home/deh/launchpad/gcc-arm-none-eabi-5_4-2016q3/bin/../lib/gcc/arm-none-eabi/5.4.1/armv7-m/libgcc.a(_arm_addsubdf3.o)
__aeabi_dsub                                      /home/deh/launchpad/gcc-arm-none-eabi-5_4-2016q3/bin/../lib/gcc/arm-none-eabi/5.4.1/armv7-m/libgcc.a(_arm_addsubdf3.o)
                                                  /home/deh/launchpad/gcc-arm-none-eabi-5_4-2016q3/bin/../lib/gcc/arm-none-eabi/5.4.1/../../../../arm-none-eabi/lib/armv7-m/libc.a(lib_a-dtoa.o)
                                                  build/contactor_func_init.o
                                                  build/contactor_cmd_msg.o
                                                  build/adcparamsinit.o
                                                  build/main.o
__aeabi_f2d                                       /home/deh/launchpad/gcc-arm-none-eabi-5_4-2016q3/bin/../lib/gcc/arm-none-eabi/5.4.1/armv7-m/libgcc.a(_arm_addsubdf3.o)
                                                  build/contactor_func_init.o
                                                  build/main.o
__aeabi_fadd                                      /home/deh/launchpad/gcc-arm-none-eabi-5_4-2016q3/bin/../lib/gcc/arm-none-eabi/5.4.1/armv7-m/libgcc.a(_arm_addsubsf3.o)
__aeabi_fdiv                                      /home/deh/launchpad/gcc-arm-none-eabi-5_4-2016q3/bin/../lib/gcc/arm-none-eabi/5.4.1/armv7-m/libgcc.a(_arm_muldivsf3.o)
                                                  build/iir_filter_lx.o
__aeabi_fmul                                      /home/deh/launchpad/gcc-arm-none-eabi-5_4-2016q3/bin/../lib/gcc/arm-none-eabi/5.4.1/armv7-m/libgcc.a(_arm_muldivsf3.o)
__aeabi_frsub                                     /home/deh/launchpad/gcc-arm-none-eabi-5_4-2016q3/bin/../lib/gcc/arm-none-eabi/5.4.1/armv7-m/libgcc.a(_arm_addsubsf3.o)
__aeabi_fsub                                      /home/deh/launchpad/gcc-arm-none-eabi-5_4-2016q3/bin/../lib/gcc/arm-none-eabi/5.4.1/armv7-m/libgcc.a(_arm_addsubsf3.o)
__aeabi_i2d                                       /home/deh/launchpad/gcc-arm-none-eabi-5_4-2016q3/bin/../lib/gcc/arm-none-eabi/5.4.1/armv7-m/libgcc.a(_arm_addsubdf3.o)
                                                  /home/deh/launchpad/gcc-arm-none-eabi-5_4-2016q3/bin/../lib/gcc/arm-none-eabi/5.4.1/../../../../arm-none-eabi/lib/armv7-m/libc.a(lib_a-dtoa.o)
                                                  build/iir_filter_lx.o
                                                  build/contactor_msgs.o
                                                  build/contactor_cmd_msg.o
                                                  build/main.o
__aeabi_i2f                                       /home/deh/launchpad/gcc-arm-none-eabi-5_4-2016q3/bin/../lib/gcc/arm-none-eabi/5.4.1/armv7-m/libgcc.a(_arm_addsubsf3.o)
                                                  build/iir_filter_lx.o
__aeabi_idiv0                                     /home/deh/launchpad/gcc-arm-none-eabi-5_4-2016q3/bin/../lib/gcc/arm-none-eabi/5.4.1/armv7-m/libgcc.a(_dvmd_tls.o)
__aeabi_l2d                                       /home/deh/launchpad/gcc-arm-none-eabi-5_4-2016q3/bin/../lib/gcc/arm-none-eabi/5.4.1/armv7-m/libgcc.a(_arm_addsubdf3.o)
__aeabi_l2f                                       /home/deh/launchpad/gcc-arm-none-eabi-5_4-2016q3/bin/../lib/gcc/arm-none-eabi/5.4.1/armv7-m/libgcc.a(_arm_addsubsf3.o)
__aeabi_ldiv0                                     /home/deh/launchpad/gcc-arm-none-eabi-5_4-2016q3/bin/../lib/gcc/arm-none-eabi/5.4.1/armv7-m/libgcc.a(_dvmd_tls.o)
                                                  /home/deh/launchpad/gcc-arm-none-eabi-5_4-2016q3/bin/../lib/gcc/arm-none-eabi/5.4.1/armv7-m/libgcc.a(_aeabi_uldivmod.o)
__aeabi_ui2d                                      /home/deh/launchpad/gcc-arm-none-eabi-5_4-2016q3/bin/../lib/gcc/arm-none-eabi/5.4.1/armv7-m/libgcc.a(_arm_addsubdf3.o)
                                                  /home/deh/launchpad/gcc-arm-none-eabi-5_4-2016q3/bin/../lib/gcc/arm-none-eabi/5.4.1/../../../../arm-none-eabi/lib/armv7-m/libc.a(lib_a-dtoa.o)
                                                  build/contactor_msgs.o
                                                  build/contactor_func_init.o
                                                  build/contactor_cmd_msg.o
                                                  build/adcparamsinit.o
                                                  build/main.o
__aeabi_ui2f                                      /home/deh/launchpad/gcc-arm-none-eabi-5_4-2016q3/bin/../lib/gcc/arm-none-eabi/5.4.1/armv7-m/libgcc.a(_arm_addsubsf3.o)
                                                  build/main.o
__aeabi_ul2d                                      /home/deh/launchpad/gcc-arm-none-eabi-5_4-2016q3/bin/../lib/gcc/arm-none-eabi/5.4.1/armv7-m/libgcc.a(_arm_addsubdf3.o)
__aeabi_ul2f                                      /home/deh/launchpad/gcc-arm-none-eabi-5_4-2016q3/bin/../lib/gcc/arm-none-eabi/5.4.1/armv7-m/libgcc.a(_arm_addsubsf3.o)
__aeabi_uldivmod                                  /home/deh/launchpad/gcc-arm-none-eabi-5_4-2016q3/bin/../lib/gcc/arm-none-eabi/5.4.1/armv7-m/libgcc.a(_aeabi_uldivmod.o)
                                                  /home/deh/launchpad/gcc-arm-none-eabi-5_4-2016q3/bin/../lib/gcc/arm-none-eabi/5.4.1/../../../../arm-none-eabi/lib/armv7-m/libc.a(lib_a-svfiprintf.o)
                                                  /home/deh/launchpad/gcc-arm-none-eabi-5_4-2016q3/bin/../lib/gcc/arm-none-eabi/5.4.1/../../../../arm-none-eabi/lib/armv7-m/libc.a(lib_a-svfprintf.o)
__any_on                                          /home/deh/launchpad/gcc-arm-none-eabi-5_4-2016q3/bin/../lib/gcc/arm-none-eabi/5.4.1/../../../../arm-none-eabi/lib/armv7-m/libc.a(lib_a-mprec.o)
__ascii_mbtowc                                    /home/deh/launchpad/gcc-arm-none-eabi-5_4-2016q3/bin/../lib/gcc/arm-none-eabi/5.4.1/../../../../arm-none-eabi/lib/armv7-m/libc.a(lib_a-mbtowc_r.o)
                                                  /home/deh/launchpad/gcc-arm-none-eabi-5_4-2016q3/bin/../lib/gcc/arm-none-eabi/5.4.1/../../../../arm-none-eabi/lib/armv7-m/libc.a(lib_a-locale.o)
__ascii_wctomb                                    /home/deh/launchpad/gcc-arm-none-eabi-5_4-2016q3/bin/../lib/gcc/arm-none-eabi/5.4.1/../../../../arm-none-eabi/lib/armv7-m/libc.a(lib_a-wctomb_r.o)
                                                  /home/deh/launchpad/gcc-arm-none-eabi-5_4-2016q3/bin/../lib/gcc/arm-none-eabi/5.4.1/../../../../arm-none-eabi/lib/armv7-m/libc.a(lib_a-locale.o)
__b2d                                             /home/deh/launchpad/gcc-arm-none-eabi-5_4-2016q3/bin/../lib/gcc/arm-none-eabi/5.4.1/../../../../arm-none-eabi/lib/armv7-m/libc.a(lib_a-mprec.o)
__bss_end__                                       /home/deh/launchpad/gcc-arm-none-eabi-5_4-2016q3/bin/../lib/gcc/arm-none-eabi/5.4.1/../../../../arm-none-eabi/lib/armv7-m/crt0.o
__bss_start__                                     /home/deh/launchpad/gcc-arm-none-eabi-5_4-2016q3/bin/../lib/gcc/arm-none-eabi/5.4.1/../../../../arm-none-eabi/lib/armv7-m/crt0.o
__call_exitprocs                                  /home/deh/launchpad/gcc-arm-none-eabi-5_4-2016q3/bin/../lib/gcc/arm-none-eabi/5.4.1/../../../../arm-none-eabi/lib/armv7-m/libc.a(lib_a-__call_atexit.o)
                                                  /home/deh/launchpad/gcc-arm-none-eabi-5_4-2016q3/bin/../lib/gcc/arm-none-eabi/5.4.1/../../../../arm-none-eabi/lib/armv7-m/libc.a(lib_a-exit.o)
__cmpdf2                                          /home/deh/launchpad/gcc-arm-none-eabi-5_4-2016q3/bin/../lib/gcc/arm-none-eabi/5.4.1/armv7-m/libgcc.a(_arm_cmpdf2.o)
__copybits                                        /home/deh/launchpad/gcc-arm-none-eabi-5_4-2016q3/bin/../lib/gcc/arm-none-eabi/5.4.1/../../../../arm-none-eabi/lib/armv7-m/libc.a(lib_a-mprec.o)
__d2b                                             /home/deh/launchpad/gcc-arm-none-eabi-5_4-2016q3/bin/../lib/gcc/arm-none-eabi/5.4.1/../../../../arm-none-eabi/lib/armv7-m/libc.a(lib_a-mprec.o)
                                                  /home/deh/launchpad/gcc-arm-none-eabi-5_4-2016q3/bin/../lib/gcc/arm-none-eabi/5.4.1/../../../../arm-none-eabi/lib/armv7-m/libc.a(lib_a-dtoa.o)
__deregister_frame_info                           /home/deh/launchpad/gcc-arm-none-eabi-5_4-2016q3/bin/../lib/gcc/arm-none-eabi/5.4.1/armv7-m/crtbegin.o
__divdf3                                          /home/deh/launchpad/gcc-arm-none-eabi-5_4-2016q3/bin/../lib/gcc/arm-none-eabi/5.4.1/armv7-m/libgcc.a(_arm_muldivdf3.o)
__divsf3                                          /home/deh/launchpad/gcc-arm-none-eabi-5_4-2016q3/bin/../lib/gcc/arm-none-eabi/5.4.1/armv7-m/libgcc.a(_arm_muldivsf3.o)
__dso_handle                                      /home/deh/launchpad/gcc-arm-none-eabi-5_4-2016q3/bin/../lib/gcc/arm-none-eabi/5.4.1/armv7-m/crtbegin.o
__eqdf2                                           /home/deh/launchpad/gcc-arm-none-eabi-5_4-2016q3/bin/../lib/gcc/arm-none-eabi/5.4.1/armv7-m/libgcc.a(_arm_cmpdf2.o)
__extendsfdf2                                     /home/deh/launchpad/gcc-arm-none-eabi-5_4-2016q3/bin/../lib/gcc/arm-none-eabi/5.4.1/armv7-m/libgcc.a(_arm_addsubdf3.o)
__fini_array_end                                  /home/deh/launchpad/gcc-arm-none-eabi-5_4-2016q3/bin/../lib/gcc/arm-none-eabi/5.4.1/../../../../arm-none-eabi/lib/armv7-m/libc.a(lib_a-fini.o)
__fini_array_start                                /home/deh/launchpad/gcc-arm-none-eabi-5_4-2016q3/bin/../lib/gcc/arm-none-eabi/5.4.1/../../../../arm-none-eabi/lib/armv7-m/libc.a(lib_a-fini.o)
__fixdfsi                                         /home/deh/launchpad/gcc-arm-none-eabi-5_4-2016q3/bin/../lib/gcc/arm-none-eabi/5.4.1/armv7-m/libgcc.a(_arm_fixdfsi.o)
__fixunsdfsi                                      /home/deh/launchpad/gcc-arm-none-eabi-5_4-2016q3/bin/../lib/gcc/arm-none-eabi/5.4.1/armv7-m/libgcc.a(_arm_fixunsdfsi.o)
__floatdidf                                       /home/deh/launchpad/gcc-arm-none-eabi-5_4-2016q3/bin/../lib/gcc/arm-none-eabi/5.4.1/armv7-m/libgcc.a(_arm_addsubdf3.o)
__floatdisf                                       /home/deh/launchpad/gcc-arm-none-eabi-5_4-2016q3/bin/../lib/gcc/arm-none-eabi/5.4.1/armv7-m/libgcc.a(_arm_addsubsf3.o)
__floatsidf                                       /home/deh/launchpad/gcc-arm-none-eabi-5_4-2016q3/bin/../lib/gcc/arm-none-eabi/5.4.1/armv7-m/libgcc.a(_arm_addsubdf3.o)
__floatsisf                                       /home/deh/launchpad/gcc-arm-none-eabi-5_4-2016q3/bin/../lib/gcc/arm-none-eabi/5.4.1/armv7-m/libgcc.a(_arm_addsubsf3.o)
__floatundidf                                     /home/deh/launchpad/gcc-arm-none-eabi-5_4-2016q3/bin/../lib/gcc/arm-none-eabi/5.4.1/armv7-m/libgcc.a(_arm_addsubdf3.o)
__floatundisf                                     /home/deh/launchpad/gcc-arm-none-eabi-5_4-2016q3/bin/../lib/gcc/arm-none-eabi/5.4.1/armv7-m/libgcc.a(_arm_addsubsf3.o)
__floatunsidf                                     /home/deh/launchpad/gcc-arm-none-eabi-5_4-2016q3/bin/../lib/gcc/arm-none-eabi/5.4.1/armv7-m/libgcc.a(_arm_addsubdf3.o)
__floatunsisf                                     /home/deh/launchpad/gcc-arm-none-eabi-5_4-2016q3/bin/../lib/gcc/arm-none-eabi/5.4.1/armv7-m/libgcc.a(_arm_addsubsf3.o)
__gedf2                                           /home/deh/launchpad/gcc-arm-none-eabi-5_4-2016q3/bin/../lib/gcc/arm-none-eabi/5.4.1/armv7-m/libgcc.a(_arm_cmpdf2.o)
__global_locale                                   /home/deh/launchpad/gcc-arm-none-eabi-5_4-2016q3/bin/../lib/gcc/arm-none-eabi/5.4.1/../../../../arm-none-eabi/lib/armv7-m/libc.a(lib_a-locale.o)
                                                  /home/deh/launchpad/gcc-arm-none-eabi-5_4-2016q3/bin/../lib/gcc/arm-none-eabi/5.4.1/../../../../arm-none-eabi/lib/armv7-m/libc.a(lib_a-wctomb_r.o)
                                                  /home/deh/launchpad/gcc-arm-none-eabi-5_4-2016q3/bin/../lib/gcc/arm-none-eabi/5.4.1/../../../../arm-none-eabi/lib/armv7-m/libc.a(lib_a-mbtowc_r.o)
                                                  /home/deh/launchpad/gcc-arm-none-eabi-5_4-2016q3/bin/../lib/gcc/arm-none-eabi/5.4.1/../../../../arm-none-eabi/lib/armv7-m/libc.a(lib_a-localeconv.o)
__gtdf2                                           /home/deh/launchpad/gcc-arm-none-eabi-5_4-2016q3/bin/../lib/gcc/arm-none-eabi/5.4.1/armv7-m/libgcc.a(_arm_cmpdf2.o)
__hi0bits                                         /home/deh/launchpad/gcc-arm-none-eabi-5_4-2016q3/bin/../lib/gcc/arm-none-eabi/5.4.1/../../../../arm-none-eabi/lib/armv7-m/libc.a(lib_a-mprec.o)
                                                  /home/deh/launchpad/gcc-arm-none-eabi-5_4-2016q3/bin/../lib/gcc/arm-none-eabi/5.4.1/../../../../arm-none-eabi/lib/armv7-m/libc.a(lib_a-dtoa.o)
__i2b                                             /home/deh/launchpad/gcc-arm-none-eabi-5_4-2016q3/bin/../lib/gcc/arm-none-eabi/5.4.1/../../../../arm-none-eabi/lib/armv7-m/libc.a(lib_a-mprec.o)
                                                  /home/deh/launchpad/gcc-arm-none-eabi-5_4-2016q3/bin/../lib/gcc/arm-none-eabi/5.4.1/../../../../arm-none-eabi/lib/armv7-m/libc.a(lib_a-dtoa.o)
__init_array_end                                  /home/deh/launchpad/gcc-arm-none-eabi-5_4-2016q3/bin/../lib/gcc/arm-none-eabi/5.4.1/../../../../arm-none-eabi/lib/armv7-m/libc.a(lib_a-init.o)
__init_array_start                                /home/deh/launchpad/gcc-arm-none-eabi-5_4-2016q3/bin/../lib/gcc/arm-none-eabi/5.4.1/../../../../arm-none-eabi/lib/armv7-m/libc.a(lib_a-init.o)
__ledf2                                           /home/deh/launchpad/gcc-arm-none-eabi-5_4-2016q3/bin/../lib/gcc/arm-none-eabi/5.4.1/armv7-m/libgcc.a(_arm_cmpdf2.o)
__libc_fini                                       /home/deh/launchpad/gcc-arm-none-eabi-5_4-2016q3/bin/../lib/gcc/arm-none-eabi/5.4.1/../../../../arm-none-eabi/lib/armv7-m/libc.a(lib_a-__call_atexit.o)
__libc_fini_array                                 /home/deh/launchpad/gcc-arm-none-eabi-5_4-2016q3/bin/../lib/gcc/arm-none-eabi/5.4.1/../../../../arm-none-eabi/lib/armv7-m/libc.a(lib_a-fini.o)
                                                  /home/deh/launchpad/gcc-arm-none-eabi-5_4-2016q3/bin/../lib/gcc/arm-none-eabi/5.4.1/../../../../arm-none-eabi/lib/armv7-m/libc.a(lib_a-__call_atexit.o)
                                                  /home/deh/launchpad/gcc-arm-none-eabi-5_4-2016q3/bin/../lib/gcc/arm-none-eabi/5.4.1/../../../../arm-none-eabi/lib/armv7-m/crt0.o
__libc_init_array                                 /home/deh/launchpad/gcc-arm-none-eabi-5_4-2016q3/bin/../lib/gcc/arm-none-eabi/5.4.1/../../../../arm-none-eabi/lib/armv7-m/libc.a(lib_a-init.o)
                                                  build/startup_stm32f103xb.o
                                                  /home/deh/launchpad/gcc-arm-none-eabi-5_4-2016q3/bin/../lib/gcc/arm-none-eabi/5.4.1/../../../../arm-none-eabi/lib/armv7-m/crt0.o
__lo0bits                                         /home/deh/launchpad/gcc-arm-none-eabi-5_4-2016q3/bin/../lib/gcc/arm-none-eabi/5.4.1/../../../../arm-none-eabi/lib/armv7-m/libc.a(lib_a-mprec.o)
__locale_ctype_ptr                                /home/deh/launchpad/gcc-arm-none-eabi-5_4-2016q3/bin/../lib/gcc/arm-none-eabi/5.4.1/../../../../arm-none-eabi/lib/armv7-m/libc.a(lib_a-locale.o)
__locale_ctype_ptr_l                              /home/deh/launchpad/gcc-arm-none-eabi-5_4-2016q3/bin/../lib/gcc/arm-none-eabi/5.4.1/../../../../arm-none-eabi/lib/armv7-m/libc.a(lib_a-locale.o)
__locale_mb_cur_max                               /home/deh/launchpad/gcc-arm-none-eabi-5_4-2016q3/bin/../lib/gcc/arm-none-eabi/5.4.1/../../../../arm-none-eabi/lib/armv7-m/libc.a(lib_a-locale.o)
__localeconv_l                                    /home/deh/launchpad/gcc-arm-none-eabi-5_4-2016q3/bin/../lib/gcc/arm-none-eabi/5.4.1/../../../../arm-none-eabi/lib/armv7-m/libc.a(lib_a-localeconv.o)
__lshift                                          /home/deh/launchpad/gcc-arm-none-eabi-5_4-2016q3/bin/../lib/gcc/arm-none-eabi/5.4.1/../../../../arm-none-eabi/lib/armv7-m/libc.a(lib_a-mprec.o)
                                                  /home/deh/launchpad/gcc-arm-none-eabi-5_4-2016q3/bin/../lib/gcc/arm-none-eabi/5.4.1/../../../../arm-none-eabi/lib/armv7-m/libc.a(lib_a-dtoa.o)
__ltdf2                                           /home/deh/launchpad/gcc-arm-none-eabi-5_4-2016q3/bin/../lib/gcc/arm-none-eabi/5.4.1/armv7-m/libgcc.a(_arm_cmpdf2.o)
__malloc_av_                                      /home/deh/launchpad/gcc-arm-none-eabi-5_4-2016q3/bin/../lib/gcc/arm-none-eabi/5.4.1/../../../../arm-none-eabi/lib/armv7-m/libc.a(lib_a-mallocr.o)
                                                  /home/deh/launchpad/gcc-arm-none-eabi-5_4-2016q3/bin/../lib/gcc/arm-none-eabi/5.4.1/../../../../arm-none-eabi/lib/armv7-m/libc.a(lib_a-reallocr.o)
                                                  /home/deh/launchpad/gcc-arm-none-eabi-5_4-2016q3/bin/../lib/gcc/arm-none-eabi/5.4.1/../../../../arm-none-eabi/lib/armv7-m/libc.a(lib_a-freer.o)
__malloc_current_mallinfo                         /home/deh/launchpad/gcc-arm-none-eabi-5_4-2016q3/bin/../lib/gcc/arm-none-eabi/5.4.1/../../../../arm-none-eabi/lib/armv7-m/libc.a(lib_a-mallocr.o)
                                                  /home/deh/launchpad/gcc-arm-none-eabi-5_4-2016q3/bin/../lib/gcc/arm-none-eabi/5.4.1/../../../../arm-none-eabi/lib/armv7-m/libc.a(lib_a-freer.o)
__malloc_lock                                     /home/deh/launchpad/gcc-arm-none-eabi-5_4-2016q3/bin/../lib/gcc/arm-none-eabi/5.4.1/../../../../arm-none-eabi/lib/armv7-m/libc.a(lib_a-mlock.o)
                                                  /home/deh/launchpad/gcc-arm-none-eabi-5_4-2016q3/bin/../lib/gcc/arm-none-eabi/5.4.1/../../../../arm-none-eabi/lib/armv7-m/libc.a(lib_a-reallocr.o)
                                                  /home/deh/launchpad/gcc-arm-none-eabi-5_4-2016q3/bin/../lib/gcc/arm-none-eabi/5.4.1/../../../../arm-none-eabi/lib/armv7-m/libc.a(lib_a-freer.o)
                                                  /home/deh/launchpad/gcc-arm-none-eabi-5_4-2016q3/bin/../lib/gcc/arm-none-eabi/5.4.1/../../../../arm-none-eabi/lib/armv7-m/libc.a(lib_a-mallocr.o)
__malloc_max_sbrked_mem                           /home/deh/launchpad/gcc-arm-none-eabi-5_4-2016q3/bin/../lib/gcc/arm-none-eabi/5.4.1/../../../../arm-none-eabi/lib/armv7-m/libc.a(lib_a-mallocr.o)
__malloc_max_total_mem                            /home/deh/launchpad/gcc-arm-none-eabi-5_4-2016q3/bin/../lib/gcc/arm-none-eabi/5.4.1/../../../../arm-none-eabi/lib/armv7-m/libc.a(lib_a-mallocr.o)
__malloc_sbrk_base                                /home/deh/launchpad/gcc-arm-none-eabi-5_4-2016q3/bin/../lib/gcc/arm-none-eabi/5.4.1/../../../../arm-none-eabi/lib/armv7-m/libc.a(lib_a-mallocr.o)
                                                  /home/deh/launchpad/gcc-arm-none-eabi-5_4-2016q3/bin/../lib/gcc/arm-none-eabi/5.4.1/../../../../arm-none-eabi/lib/armv7-m/libc.a(lib_a-freer.o)
__malloc_top_pad                                  /home/deh/launchpad/gcc-arm-none-eabi-5_4-2016q3/bin/../lib/gcc/arm-none-eabi/5.4.1/../../../../arm-none-eabi/lib/armv7-m/libc.a(lib_a-mallocr.o)
                                                  /home/deh/launchpad/gcc-arm-none-eabi-5_4-2016q3/bin/../lib/gcc/arm-none-eabi/5.4.1/../../../../arm-none-eabi/lib/armv7-m/libc.a(lib_a-freer.o)
__malloc_trim_threshold                           /home/deh/launchpad/gcc-arm-none-eabi-5_4-2016q3/bin/../lib/gcc/arm-none-eabi/5.4.1/../../../../arm-none-eabi/lib/armv7-m/libc.a(lib_a-mallocr.o)
                                                  /home/deh/launchpad/gcc-arm-none-eabi-5_4-2016q3/bin/../lib/gcc/arm-none-eabi/5.4.1/../../../../arm-none-eabi/lib/armv7-m/libc.a(lib_a-freer.o)
__malloc_unlock                                   /home/deh/launchpad/gcc-arm-none-eabi-5_4-2016q3/bin/../lib/gcc/arm-none-eabi/5.4.1/../../../../arm-none-eabi/lib/armv7-m/libc.a(lib_a-mlock.o)
                                                  /home/deh/launchpad/gcc-arm-none-eabi-5_4-2016q3/bin/../lib/gcc/arm-none-eabi/5.4.1/../../../../arm-none-eabi/lib/armv7-m/libc.a(lib_a-reallocr.o)
                                                  /home/deh/launchpad/gcc-arm-none-eabi-5_4-2016q3/bin/../lib/gcc/arm-none-eabi/5.4.1/../../../../arm-none-eabi/lib/armv7-m/libc.a(lib_a-freer.o)
                                                  /home/deh/launchpad/gcc-arm-none-eabi-5_4-2016q3/bin/../lib/gcc/arm-none-eabi/5.4.1/../../../../arm-none-eabi/lib/armv7-m/libc.a(lib_a-mallocr.o)
__mcmp                                            /home/deh/launchpad/gcc-arm-none-eabi-5_4-2016q3/bin/../lib/gcc/arm-none-eabi/5.4.1/../../../../arm-none-eabi/lib/armv7-m/libc.a(lib_a-mprec.o)
                                                  /home/deh/launchpad/gcc-arm-none-eabi-5_4-2016q3/bin/../lib/gcc/arm-none-eabi/5.4.1/../../../../arm-none-eabi/lib/armv7-m/libc.a(lib_a-dtoa.o)
__mdiff                                           /home/deh/launchpad/gcc-arm-none-eabi-5_4-2016q3/bin/../lib/gcc/arm-none-eabi/5.4.1/../../../../arm-none-eabi/lib/armv7-m/libc.a(lib_a-mprec.o)
                                                  /home/deh/launchpad/gcc-arm-none-eabi-5_4-2016q3/bin/../lib/gcc/arm-none-eabi/5.4.1/../../../../arm-none-eabi/lib/armv7-m/libc.a(lib_a-dtoa.o)
__mprec_bigtens                                   /home/deh/launchpad/gcc-arm-none-eabi-5_4-2016q3/bin/../lib/gcc/arm-none-eabi/5.4.1/../../../../arm-none-eabi/lib/armv7-m/libc.a(lib_a-mprec.o)
                                                  /home/deh/launchpad/gcc-arm-none-eabi-5_4-2016q3/bin/../lib/gcc/arm-none-eabi/5.4.1/../../../../arm-none-eabi/lib/armv7-m/libc.a(lib_a-dtoa.o)
__mprec_tens                                      /home/deh/launchpad/gcc-arm-none-eabi-5_4-2016q3/bin/../lib/gcc/arm-none-eabi/5.4.1/../../../../arm-none-eabi/lib/armv7-m/libc.a(lib_a-mprec.o)
                                                  /home/deh/launchpad/gcc-arm-none-eabi-5_4-2016q3/bin/../lib/gcc/arm-none-eabi/5.4.1/../../../../arm-none-eabi/lib/armv7-m/libc.a(lib_a-dtoa.o)
__mprec_tinytens                                  /home/deh/launchpad/gcc-arm-none-eabi-5_4-2016q3/bin/../lib/gcc/arm-none-eabi/5.4.1/../../../../arm-none-eabi/lib/armv7-m/libc.a(lib_a-mprec.o)
__muldf3                                          /home/deh/launchpad/gcc-arm-none-eabi-5_4-2016q3/bin/../lib/gcc/arm-none-eabi/5.4.1/armv7-m/libgcc.a(_arm_muldivdf3.o)
__mulsf3                                          /home/deh/launchpad/gcc-arm-none-eabi-5_4-2016q3/bin/../lib/gcc/arm-none-eabi/5.4.1/armv7-m/libgcc.a(_arm_muldivsf3.o)
__multadd                                         /home/deh/launchpad/gcc-arm-none-eabi-5_4-2016q3/bin/../lib/gcc/arm-none-eabi/5.4.1/../../../../arm-none-eabi/lib/armv7-m/libc.a(lib_a-mprec.o)
                                                  /home/deh/launchpad/gcc-arm-none-eabi-5_4-2016q3/bin/../lib/gcc/arm-none-eabi/5.4.1/../../../../arm-none-eabi/lib/armv7-m/libc.a(lib_a-dtoa.o)
__multiply                                        /home/deh/launchpad/gcc-arm-none-eabi-5_4-2016q3/bin/../lib/gcc/arm-none-eabi/5.4.1/../../../../arm-none-eabi/lib/armv7-m/libc.a(lib_a-mprec.o)
                                                  /home/deh/launchpad/gcc-arm-none-eabi-5_4-2016q3/bin/../lib/gcc/arm-none-eabi/5.4.1/../../../../arm-none-eabi/lib/armv7-m/libc.a(lib_a-dtoa.o)
__nedf2                                           /home/deh/launchpad/gcc-arm-none-eabi-5_4-2016q3/bin/../lib/gcc/arm-none-eabi/5.4.1/armv7-m/libgcc.a(_arm_cmpdf2.o)
__pow5mult                                        /home/deh/launchpad/gcc-arm-none-eabi-5_4-2016q3/bin/../lib/gcc/arm-none-eabi/5.4.1/../../../../arm-none-eabi/lib/armv7-m/libc.a(lib_a-mprec.o)
                                                  /home/deh/launchpad/gcc-arm-none-eabi-5_4-2016q3/bin/../lib/gcc/arm-none-eabi/5.4.1/../../../../arm-none-eabi/lib/armv7-m/libc.a(lib_a-dtoa.o)
__preinit_array_end                               /home/deh/launchpad/gcc-arm-none-eabi-5_4-2016q3/bin/../lib/gcc/arm-none-eabi/5.4.1/../../../../arm-none-eabi/lib/armv7-m/libc.a(lib_a-init.o)
__preinit_array_start                             /home/deh/launchpad/gcc-arm-none-eabi-5_4-2016q3/bin/../lib/gcc/arm-none-eabi/5.4.1/../../../../arm-none-eabi/lib/armv7-m/libc.a(lib_a-init.o)
__ratio                                           /home/deh/launchpad/gcc-arm-none-eabi-5_4-2016q3/bin/../lib/gcc/arm-none-eabi/5.4.1/../../../../arm-none-eabi/lib/armv7-m/libc.a(lib_a-mprec.o)
__register_exitproc                               /home/deh/launchpad/gcc-arm-none-eabi-5_4-2016q3/bin/../lib/gcc/arm-none-eabi/5.4.1/../../../../arm-none-eabi/lib/armv7-m/libc.a(lib_a-__atexit.o)
                                                  /home/deh/launchpad/gcc-arm-none-eabi-5_4-2016q3/bin/../lib/gcc/arm-none-eabi/5.4.1/../../../../arm-none-eabi/lib/armv7-m/libc.a(lib_a-atexit.o)
__register_frame_info                             /home/deh/launchpad/gcc-arm-none-eabi-5_4-2016q3/bin/../lib/gcc/arm-none-eabi/5.4.1/armv7-m/crtbegin.o
__s2b                                             /home/deh/launchpad/gcc-arm-none-eabi-5_4-2016q3/bin/../lib/gcc/arm-none-eabi/5.4.1/../../../../arm-none-eabi/lib/armv7-m/libc.a(lib_a-mprec.o)
__ssprint_r                                       /home/deh/launchpad/gcc-arm-none-eabi-5_4-2016q3/bin/../lib/gcc/arm-none-eabi/5.4.1/../../../../arm-none-eabi/lib/armv7-m/libc.a(lib_a-svfiprintf.o)
                                                  /home/deh/launchpad/gcc-arm-none-eabi-5_4-2016q3/bin/../lib/gcc/arm-none-eabi/5.4.1/../../../../arm-none-eabi/lib/armv7-m/libc.a(lib_a-svfprintf.o)
__stack                                           /home/deh/launchpad/gcc-arm-none-eabi-5_4-2016q3/bin/../lib/gcc/arm-none-eabi/5.4.1/../../../../arm-none-eabi/lib/armv7-m/crt0.o
__subdf3                                          /home/deh/launchpad/gcc-arm-none-eabi-5_4-2016q3/bin/../lib/gcc/arm-none-eabi/5.4.1/armv7-m/libgcc.a(_arm_addsubdf3.o)
__subsf3                                          /home/deh/launchpad/gcc-arm-none-eabi-5_4-2016q3/bin/../lib/gcc/arm-none-eabi/5.4.1/armv7-m/libgcc.a(_arm_addsubsf3.o)
__truncdfsf2                                      /home/deh/launchpad/gcc-arm-none-eabi-5_4-2016q3/bin/../lib/gcc/arm-none-eabi/5.4.1/armv7-m/libgcc.a(_arm_truncdfsf2.o)
__udivmoddi4                                      /home/deh/launchpad/gcc-arm-none-eabi-5_4-2016q3/bin/../lib/gcc/arm-none-eabi/5.4.1/armv7-m/libgcc.a(_udivmoddi4.o)
                                                  /home/deh/launchpad/gcc-arm-none-eabi-5_4-2016q3/bin/../lib/gcc/arm-none-eabi/5.4.1/armv7-m/libgcc.a(_aeabi_uldivmod.o)
__ulp                                             /home/deh/launchpad/gcc-arm-none-eabi-5_4-2016q3/bin/../lib/gcc/arm-none-eabi/5.4.1/../../../../arm-none-eabi/lib/armv7-m/libc.a(lib_a-mprec.o)
__unorddf2                                        /home/deh/launchpad/gcc-arm-none-eabi-5_4-2016q3/bin/../lib/gcc/arm-none-eabi/5.4.1/armv7-m/libgcc.a(_arm_unorddf2.o)
_calloc_r                                         /home/deh/launchpad/gcc-arm-none-eabi-5_4-2016q3/bin/../lib/gcc/arm-none-eabi/5.4.1/../../../../arm-none-eabi/lib/armv7-m/libc.a(lib_a-callocr.o)
                                                  /home/deh/launchpad/gcc-arm-none-eabi-5_4-2016q3/bin/../lib/gcc/arm-none-eabi/5.4.1/../../../../arm-none-eabi/lib/armv7-m/libc.a(lib_a-mprec.o)
                                                  /home/deh/launchpad/gcc-arm-none-eabi-5_4-2016q3/bin/../lib/gcc/arm-none-eabi/5.4.1/../../../../arm-none-eabi/lib/armv7-m/libc.a(lib_a-calloc.o)
_ctype_                                           /home/deh/launchpad/gcc-arm-none-eabi-5_4-2016q3/bin/../lib/gcc/arm-none-eabi/5.4.1/../../../../arm-none-eabi/lib/armv7-m/libc.a(lib_a-ctype_.o)
                                                  /home/deh/launchpad/gcc-arm-none-eabi-5_4-2016q3/bin/../lib/gcc/arm-none-eabi/5.4.1/../../../../arm-none-eabi/lib/armv7-m/libc.a(lib_a-locale.o)
_dtoa_r                                           /home/deh/launchpad/gcc-arm-none-eabi-5_4-2016q3/bin/../lib/gcc/arm-none-eabi/5.4.1/../../../../arm-none-eabi/lib/armv7-m/libc.a(lib_a-dtoa.o)
                                                  /home/deh/launchpad/gcc-arm-none-eabi-5_4-2016q3/bin/../lib/gcc/arm-none-eabi/5.4.1/../../../../arm-none-eabi/lib/armv7-m/libc.a(lib_a-svfprintf.o)
_ebss                                             build/startup_stm32f103xb.o
_edata                                            build/startup_stm32f103xb.o
_estack                                           build/startup_stm32f103xb.o
_exit                                             /home/deh/launchpad/gcc-arm-none-eabi-5_4-2016q3/bin/../lib/gcc/arm-none-eabi/5.4.1/../../../../arm-none-eabi/lib/armv7-m/libnosys.a(_exit.o)
                                                  /home/deh/launchpad/gcc-arm-none-eabi-5_4-2016q3/bin/../lib/gcc/arm-none-eabi/5.4.1/../../../../arm-none-eabi/lib/armv7-m/libc.a(lib_a-exit.o)
_fini                                             /home/deh/launchpad/gcc-arm-none-eabi-5_4-2016q3/bin/../lib/gcc/arm-none-eabi/5.4.1/armv7-m/crti.o
                                                  /home/deh/launchpad/gcc-arm-none-eabi-5_4-2016q3/bin/../lib/gcc/arm-none-eabi/5.4.1/../../../../arm-none-eabi/lib/armv7-m/libc.a(lib_a-fini.o)
_free_r                                           /home/deh/launchpad/gcc-arm-none-eabi-5_4-2016q3/bin/../lib/gcc/arm-none-eabi/5.4.1/../../../../arm-none-eabi/lib/armv7-m/libc.a(lib_a-freer.o)
                                                  /home/deh/launchpad/gcc-arm-none-eabi-5_4-2016q3/bin/../lib/gcc/arm-none-eabi/5.4.1/../../../../arm-none-eabi/lib/armv7-m/libc.a(lib_a-reallocr.o)
                                                  /home/deh/launchpad/gcc-arm-none-eabi-5_4-2016q3/bin/../lib/gcc/arm-none-eabi/5.4.1/../../../../arm-none-eabi/lib/armv7-m/libc.a(lib_a-svfiprintf.o)
                                                  /home/deh/launchpad/gcc-arm-none-eabi-5_4-2016q3/bin/../lib/gcc/arm-none-eabi/5.4.1/../../../../arm-none-eabi/lib/armv7-m/libc.a(lib_a-reent.o)
                                                  /home/deh/launchpad/gcc-arm-none-eabi-5_4-2016q3/bin/../lib/gcc/arm-none-eabi/5.4.1/../../../../arm-none-eabi/lib/armv7-m/libc.a(lib_a-mallocr.o)
_global_impure_ptr                                /home/deh/launchpad/gcc-arm-none-eabi-5_4-2016q3/bin/../lib/gcc/arm-none-eabi/5.4.1/../../../../arm-none-eabi/lib/armv7-m/libc.a(lib_a-impure.o)
                                                  /home/deh/launchpad/gcc-arm-none-eabi-5_4-2016q3/bin/../lib/gcc/arm-none-eabi/5.4.1/../../../../arm-none-eabi/lib/armv7-m/libc.a(lib_a-__atexit.o)
                                                  /home/deh/launchpad/gcc-arm-none-eabi-5_4-2016q3/bin/../lib/gcc/arm-none-eabi/5.4.1/../../../../arm-none-eabi/lib/armv7-m/libc.a(lib_a-__call_atexit.o)
                                                  /home/deh/launchpad/gcc-arm-none-eabi-5_4-2016q3/bin/../lib/gcc/arm-none-eabi/5.4.1/../../../../arm-none-eabi/lib/armv7-m/libc.a(lib_a-exit.o)
_impure_ptr                                       /home/deh/launchpad/gcc-arm-none-eabi-5_4-2016q3/bin/../lib/gcc/arm-none-eabi/5.4.1/../../../../arm-none-eabi/lib/armv7-m/libc.a(lib_a-impure.o)
                                                  /home/deh/launchpad/gcc-arm-none-eabi-5_4-2016q3/bin/../lib/gcc/arm-none-eabi/5.4.1/../../../../arm-none-eabi/lib/armv7-m/libc.a(lib_a-wctomb_r.o)
                                                  /home/deh/launchpad/gcc-arm-none-eabi-5_4-2016q3/bin/../lib/gcc/arm-none-eabi/5.4.1/../../../../arm-none-eabi/lib/armv7-m/libc.a(lib_a-mbtowc_r.o)
                                                  /home/deh/launchpad/gcc-arm-none-eabi-5_4-2016q3/bin/../lib/gcc/arm-none-eabi/5.4.1/../../../../arm-none-eabi/lib/armv7-m/libc.a(lib_a-locale.o)
                                                  /home/deh/launchpad/gcc-arm-none-eabi-5_4-2016q3/bin/../lib/gcc/arm-none-eabi/5.4.1/../../../../arm-none-eabi/lib/armv7-m/libc.a(lib_a-localeconv.o)
                                                  /home/deh/launchpad/gcc-arm-none-eabi-5_4-2016q3/bin/../lib/gcc/arm-none-eabi/5.4.1/../../../../arm-none-eabi/lib/armv7-m/libc.a(lib_a-reent.o)
                                                  /home/deh/launchpad/gcc-arm-none-eabi-5_4-2016q3/bin/../lib/gcc/arm-none-eabi/5.4.1/../../../../arm-none-eabi/lib/armv7-m/libc.a(lib_a-vsnprintf.o)
                                                  /home/deh/launchpad/gcc-arm-none-eabi-5_4-2016q3/bin/../lib/gcc/arm-none-eabi/5.4.1/../../../../arm-none-eabi/lib/armv7-m/libc.a(lib_a-calloc.o)
_init                                             /home/deh/launchpad/gcc-arm-none-eabi-5_4-2016q3/bin/../lib/gcc/arm-none-eabi/5.4.1/armv7-m/crti.o
                                                  /home/deh/launchpad/gcc-arm-none-eabi-5_4-2016q3/bin/../lib/gcc/arm-none-eabi/5.4.1/../../../../arm-none-eabi/lib/armv7-m/libc.a(lib_a-init.o)
_localeconv_r                                     /home/deh/launchpad/gcc-arm-none-eabi-5_4-2016q3/bin/../lib/gcc/arm-none-eabi/5.4.1/../../../../arm-none-eabi/lib/armv7-m/libc.a(lib_a-localeconv.o)
                                                  /home/deh/launchpad/gcc-arm-none-eabi-5_4-2016q3/bin/../lib/gcc/arm-none-eabi/5.4.1/../../../../arm-none-eabi/lib/armv7-m/libc.a(lib_a-svfprintf.o)
_mainCRTStartup                                   /home/deh/launchpad/gcc-arm-none-eabi-5_4-2016q3/bin/../lib/gcc/arm-none-eabi/5.4.1/../../../../arm-none-eabi/lib/armv7-m/crt0.o
_malloc_r                                         /home/deh/launchpad/gcc-arm-none-eabi-5_4-2016q3/bin/../lib/gcc/arm-none-eabi/5.4.1/../../../../arm-none-eabi/lib/armv7-m/libc.a(lib_a-mallocr.o)
                                                  /home/deh/launchpad/gcc-arm-none-eabi-5_4-2016q3/bin/../lib/gcc/arm-none-eabi/5.4.1/../../../../arm-none-eabi/lib/armv7-m/libc.a(lib_a-reallocr.o)
                                                  /home/deh/launchpad/gcc-arm-none-eabi-5_4-2016q3/bin/../lib/gcc/arm-none-eabi/5.4.1/../../../../arm-none-eabi/lib/armv7-m/libc.a(lib_a-svfiprintf.o)
                                                  /home/deh/launchpad/gcc-arm-none-eabi-5_4-2016q3/bin/../lib/gcc/arm-none-eabi/5.4.1/../../../../arm-none-eabi/lib/armv7-m/libc.a(lib_a-svfprintf.o)
                                                  /home/deh/launchpad/gcc-arm-none-eabi-5_4-2016q3/bin/../lib/gcc/arm-none-eabi/5.4.1/../../../../arm-none-eabi/lib/armv7-m/libc.a(lib_a-callocr.o)
_malloc_trim_r                                    /home/deh/launchpad/gcc-arm-none-eabi-5_4-2016q3/bin/../lib/gcc/arm-none-eabi/5.4.1/../../../../arm-none-eabi/lib/armv7-m/libc.a(lib_a-freer.o)
_mbtowc_r                                         /home/deh/launchpad/gcc-arm-none-eabi-5_4-2016q3/bin/../lib/gcc/arm-none-eabi/5.4.1/../../../../arm-none-eabi/lib/armv7-m/libc.a(lib_a-mbtowc_r.o)
_mprec_log10                                      /home/deh/launchpad/gcc-arm-none-eabi-5_4-2016q3/bin/../lib/gcc/arm-none-eabi/5.4.1/../../../../arm-none-eabi/lib/armv7-m/libc.a(lib_a-mprec.o)
_realloc_r                                        /home/deh/launchpad/gcc-arm-none-eabi-5_4-2016q3/bin/../lib/gcc/arm-none-eabi/5.4.1/../../../../arm-none-eabi/lib/armv7-m/libc.a(lib_a-reallocr.o)
                                                  /home/deh/launchpad/gcc-arm-none-eabi-5_4-2016q3/bin/../lib/gcc/arm-none-eabi/5.4.1/../../../../arm-none-eabi/lib/armv7-m/libc.a(lib_a-svfiprintf.o)
_reclaim_reent                                    /home/deh/launchpad/gcc-arm-none-eabi-5_4-2016q3/bin/../lib/gcc/arm-none-eabi/5.4.1/../../../../arm-none-eabi/lib/armv7-m/libc.a(lib_a-reent.o)
_sbrk                                             /home/deh/launchpad/gcc-arm-none-eabi-5_4-2016q3/bin/../lib/gcc/arm-none-eabi/5.4.1/../../../../arm-none-eabi/lib/armv7-m/libnosys.a(sbrk.o)
                                                  /home/deh/launchpad/gcc-arm-none-eabi-5_4-2016q3/bin/../lib/gcc/arm-none-eabi/5.4.1/../../../../arm-none-eabi/lib/armv7-m/libc.a(lib_a-sbrkr.o)
_sbrk_r                                           /home/deh/launchpad/gcc-arm-none-eabi-5_4-2016q3/bin/../lib/gcc/arm-none-eabi/5.4.1/../../../../arm-none-eabi/lib/armv7-m/libc.a(lib_a-sbrkr.o)
                                                  /home/deh/launchpad/gcc-arm-none-eabi-5_4-2016q3/bin/../lib/gcc/arm-none-eabi/5.4.1/../../../../arm-none-eabi/lib/armv7-m/libc.a(lib_a-freer.o)
                                                  /home/deh/launchpad/gcc-arm-none-eabi-5_4-2016q3/bin/../lib/gcc/arm-none-eabi/5.4.1/../../../../arm-none-eabi/lib/armv7-m/libc.a(lib_a-mallocr.o)
_sbss                                             build/startup_stm32f103xb.o
_sdata                                            build/startup_stm32f103xb.o
_setlocale_r                                      /home/deh/launchpad/gcc-arm-none-eabi-5_4-2016q3/bin/../lib/gcc/arm-none-eabi/5.4.1/../../../../arm-none-eabi/lib/armv7-m/libc.a(lib_a-locale.o)
_sidata                                           build/startup_stm32f103xb.o
_start                                            /home/deh/launchpad/gcc-arm-none-eabi-5_4-2016q3/bin/../lib/gcc/arm-none-eabi/5.4.1/../../../../arm-none-eabi/lib/armv7-m/crt0.o
_svfiprintf_r                                     /home/deh/launchpad/gcc-arm-none-eabi-5_4-2016q3/bin/../lib/gcc/arm-none-eabi/5.4.1/../../../../arm-none-eabi/lib/armv7-m/libc.a(lib_a-svfiprintf.o)
_svfprintf_r                                      /home/deh/launchpad/gcc-arm-none-eabi-5_4-2016q3/bin/../lib/gcc/arm-none-eabi/5.4.1/../../../../arm-none-eabi/lib/armv7-m/libc.a(lib_a-svfprintf.o)
                                                  /home/deh/launchpad/gcc-arm-none-eabi-5_4-2016q3/bin/../lib/gcc/arm-none-eabi/5.4.1/../../../../arm-none-eabi/lib/armv7-m/libc.a(lib_a-vsnprintf.o)
_vsnprintf_r                                      /home/deh/launchpad/gcc-arm-none-eabi-5_4-2016q3/bin/../lib/gcc/arm-none-eabi/5.4.1/../../../../arm-none-eabi/lib/armv7-m/libc.a(lib_a-vsnprintf.o)
_wctomb_r                                         /home/deh/launchpad/gcc-arm-none-eabi-5_4-2016q3/bin/../lib/gcc/arm-none-eabi/5.4.1/../../../../arm-none-eabi/lib/armv7-m/libc.a(lib_a-wctomb_r.o)
adc1                                              build/adcparams.o
                                                  build/ContactorTask.o
                                                  build/ADCTask.o
adc1dmatskblk                                     build/adctask.o
                                                  build/ADCTask.o
adc_idx_v_struct_hardcode_params                  build/adc_idx_v_struct.o
                                                  build/adcparams.o
adcdbctr                                          build/ADCTask.o
adcdbg1                                           build/adcparams.o
adcdbg2                                           build/adcparams.o
                                                  build/main.o
adcdtmp                                           build/adcparamsinit.o
adcextendsum                                      build/adcextendsum.o
                                                  build/ADCTask.o
adcfastsum16                                      build/adcfastsum16.o
                                                  build/ADCTask.o
adcparams_cal                                     build/adcparams.o
                                                  build/ADCTask.o
adcparams_init                                    build/adcparams.o
                                                  build/adctask.o
adcparamsinit_init                                build/adcparamsinit.o
                                                  build/adcparams.o
adcsumdb                                          build/ADCTask.o
                                                  build/main.o
adctask_init                                      build/adctask.o
                                                  build/ADCTask.o
atexit                                            /home/deh/launchpad/gcc-arm-none-eabi-5_4-2016q3/bin/../lib/gcc/arm-none-eabi/5.4.1/../../../../arm-none-eabi/lib/armv7-m/libc.a(lib_a-atexit.o)
                                                  /home/deh/launchpad/gcc-arm-none-eabi-5_4-2016q3/bin/../lib/gcc/arm-none-eabi/5.4.1/../../../../arm-none-eabi/lib/armv7-m/libc.a(lib_a-__call_atexit.o)
                                                  /home/deh/launchpad/gcc-arm-none-eabi-5_4-2016q3/bin/../lib/gcc/arm-none-eabi/5.4.1/../../../../arm-none-eabi/lib/armv7-m/crt0.o
calloc                                            /home/deh/launchpad/gcc-arm-none-eabi-5_4-2016q3/bin/../lib/gcc/arm-none-eabi/5.4.1/../../../../arm-none-eabi/lib/armv7-m/libc.a(lib_a-calloc.o)
                                                  build/adctask.o
                                                  build/MailboxTask.o
                                                  build/SerialTaskReceive.o
                                                  build/getserialbuf.o
                                                  build/can_iface.o
                                                  build/SerialTaskSend.o
can_driver_put                                    build/can_iface.o
                                                  build/CanTask.o
can_iface_add_take                                build/can_iface.o
can_iface_get_CANmsg                              build/can_iface.o
                                                  build/MailboxTask.o
can_iface_init                                    build/can_iface.o
                                                  build/main.o
can_iface_mbx_init                                build/can_iface.o
                                                  build/MailboxTask.o
canfilter_setup_add32b_id                         build/canfilter_setup.o
                                                  build/contactor_func_init.o
canfilter_setup_add32b_mskmode                    build/canfilter_setup.o
canfilter_setup_first                             build/canfilter_setup.o
                                                  build/main.o
canflag                                           build/main.o
canflag1                                          build/main.o
canmsg_expand                                     build/CanTask.o
cic_computation_filtering                         build/cic_computation.o
cic_computation_init                              build/cic_computation.o
cic_filter_l_N2_M3                                build/cic_filter_l_N2_M3.o
                                                  build/cic_computation.o
cleanup_glue                                      /home/deh/launchpad/gcc-arm-none-eabi-5_4-2016q3/bin/../lib/gcc/arm-none-eabi/5.4.1/../../../../arm-none-eabi/lib/armv7-m/libc.a(lib_a-reent.o)
contactor_cmd_msg_i                               build/contactor_cmd_msg.o
                                                  build/ContactorEvents.o
contactor_func_init_canfilter                     build/contactor_func_init.o
                                                  build/ContactorTask.o
contactor_func_init_init                          build/contactor_func_init.o
                                                  build/ContactorTask.o
contactor_hv_calibrate                            build/contactor_hv.o
                                                  build/ContactorEvents.o
contactor_hv_uartline                             build/contactor_hv.o
                                                  build/ContactorEvents.o
contactor_idx_v_struct_hardcode_params            build/contactor_idx_v_struct.o
                                                  build/ContactorTask.o
contactor_msg1                                    build/contactor_msgs.o
                                                  build/ContactorEvents.o
contactor_msg2                                    build/contactor_msgs.o
                                                  build/ContactorEvents.o
contactor_msg_ka                                  build/contactor_msgs.o
                                                  build/ContactorUpdates.o
contactorfunction                                 build/ContactorTask.o
                                                  build/main.o
dbgCE1                                            build/ContactorEvents.o
                                                  build/main.o
dbgadcfil                                         build/adcparams.o
                                                  build/main.o
dbgadcratio                                       build/adcparams.o
                                                  build/main.o
dbgcanrxctr                                       build/can_iface.o
dbgcantxctr                                       build/can_iface.o
dbgev04                                           build/ContactorEvents.o
dbgevcmd                                          build/ContactorEvents.o
dbggpsflag                                        build/ContactorEvents.o
dbgkactr                                          build/contactor_msgs.o
dbgmbxctr                                         build/MailboxTask.o
dbgmsg1ctr                                        build/contactor_msgs.o
dbgstmp                                           build/ContactorStates.o
debug03                                           build/main.o
debug03_prev                                      build/main.o
debugTX1c                                         build/main.o
                                                  build/can_iface.o
debugTX1c_prev                                    build/main.o
defaultTaskHandle                                 build/main.o
end                                               /home/deh/launchpad/gcc-arm-none-eabi-5_4-2016q3/bin/../lib/gcc/arm-none-eabi/5.4.1/../../../../arm-none-eabi/lib/armv7-m/libnosys.a(sbrk.o)
errno                                             /home/deh/launchpad/gcc-arm-none-eabi-5_4-2016q3/bin/../lib/gcc/arm-none-eabi/5.4.1/../../../../arm-none-eabi/lib/armv7-m/libc.a(lib_a-reent.o)
                                                  /home/deh/launchpad/gcc-arm-none-eabi-5_4-2016q3/bin/../lib/gcc/arm-none-eabi/5.4.1/../../../../arm-none-eabi/lib/armv7-m/libc.a(lib_a-sbrkr.o)
exit                                              /home/deh/launchpad/gcc-arm-none-eabi-5_4-2016q3/bin/../lib/gcc/arm-none-eabi/5.4.1/../../../../arm-none-eabi/lib/armv7-m/libc.a(lib_a-exit.o)
                                                  /home/deh/launchpad/gcc-arm-none-eabi-5_4-2016q3/bin/../lib/gcc/arm-none-eabi/5.4.1/../../../../arm-none-eabi/lib/armv7-m/crt0.o
free                                              /home/deh/launchpad/gcc-arm-none-eabi-5_4-2016q3/bin/../lib/gcc/arm-none-eabi/5.4.1/../../../../arm-none-eabi/lib/armv7-m/libc.a(lib_a-__call_atexit.o)
g_pfnVectors                                      build/startup_stm32f103xb.o
getpctl                                           build/can_iface.o
getserialbuf                                      build/getserialbuf.o
                                                  build/main.o
hadc1                                             build/main.o
                                                  build/ADCTask.o
hardware_init_hook                                /home/deh/launchpad/gcc-arm-none-eabi-5_4-2016q3/bin/../lib/gcc/arm-none-eabi/5.4.1/../../../../arm-none-eabi/lib/armv7-m/crt0.o
hcan                                              build/main.o
                                                  build/contactor_func_init.o
                                                  build/stm32f1xx_it.o
hdma_adc1                                         build/main.o
                                                  build/stm32f1xx_hal_msp.o
                                                  build/stm32f1xx_it.o
hdma_usart1_rx                                    build/main.o
                                                  build/stm32f1xx_hal_msp.o
                                                  build/stm32f1xx_it.o
hdma_usart1_tx                                    build/main.o
                                                  build/stm32f1xx_hal_msp.o
                                                  build/stm32f1xx_it.o
htim1                                             build/main.o
htim2                                             build/stm32f1xx_hal_timebase_tim.o
                                                  build/stm32f1xx_it.o
htim3                                             build/main.o
                                                  build/ContactorUpdates.o
htim4                                             build/main.o
                                                  build/ContactorUpdates.o
                                                  build/contactor_func_init.o
huart1                                            build/main.o
                                                  build/stm32f1xx_it.o
huart3                                            build/main.o
                                                  build/ContactorTask.o
                                                  build/stm32f1xx_it.o
hxbn                                              build/hexbin.o
                                                  build/contactor_hv.o
iir_filter_lx_do                                  build/iir_filter_lx.o
                                                  build/adcparams.o
iir_filter_lx_double                              build/iir_filter_lx.o
iir_filter_lx_float                               build/iir_filter_lx.o
localeconv                                        /home/deh/launchpad/gcc-arm-none-eabi-5_4-2016q3/bin/../lib/gcc/arm-none-eabi/5.4.1/../../../../arm-none-eabi/lib/armv7-m/libc.a(lib_a-localeconv.o)
m_trap                                            build/main.o
main                                              build/main.o
                                                  build/startup_stm32f103xb.o
                                                  /home/deh/launchpad/gcc-arm-none-eabi-5_4-2016q3/bin/../lib/gcc/arm-none-eabi/5.4.1/../../../../arm-none-eabi/lib/armv7-m/crt0.o
malloc                                            /home/deh/launchpad/gcc-arm-none-eabi-5_4-2016q3/bin/../lib/gcc/arm-none-eabi/5.4.1/../../../../arm-none-eabi/lib/armv7-m/libc.a(lib_a-__atexit.o)
mbxcannum                                         build/MailboxTask.o
memchr                                            /home/deh/launchpad/gcc-arm-none-eabi-5_4-2016q3/bin/../lib/gcc/arm-none-eabi/5.4.1/../../../../arm-none-eabi/lib/armv7-m/libc.a(lib_a-memchr-stub.o)
                                                  /home/deh/launchpad/gcc-arm-none-eabi-5_4-2016q3/bin/../lib/gcc/arm-none-eabi/5.4.1/../../../../arm-none-eabi/lib/armv7-m/libc.a(lib_a-svfiprintf.o)
                                                  /home/deh/launchpad/gcc-arm-none-eabi-5_4-2016q3/bin/../lib/gcc/arm-none-eabi/5.4.1/../../../../arm-none-eabi/lib/armv7-m/libc.a(lib_a-svfprintf.o)
memcpy                                            /home/deh/launchpad/gcc-arm-none-eabi-5_4-2016q3/bin/../lib/gcc/arm-none-eabi/5.4.1/../../../../arm-none-eabi/lib/armv7-m/libc.a(lib_a-memcpy.o)
                                                  /home/deh/launchpad/gcc-arm-none-eabi-5_4-2016q3/bin/../lib/gcc/arm-none-eabi/5.4.1/../../../../arm-none-eabi/lib/armv7-m/libc.a(lib_a-svfiprintf.o)
                                                  /home/deh/launchpad/gcc-arm-none-eabi-5_4-2016q3/bin/../lib/gcc/arm-none-eabi/5.4.1/../../../../arm-none-eabi/lib/armv7-m/libc.a(lib_a-mprec.o)
                                                  /home/deh/launchpad/gcc-arm-none-eabi-5_4-2016q3/bin/../lib/gcc/arm-none-eabi/5.4.1/../../../../arm-none-eabi/lib/armv7-m/libc.a(lib_a-dtoa.o)
                                                  build/queue.o
memmove                                           /home/deh/launchpad/gcc-arm-none-eabi-5_4-2016q3/bin/../lib/gcc/arm-none-eabi/5.4.1/../../../../arm-none-eabi/lib/armv7-m/libc.a(lib_a-memmove.o)
                                                  /home/deh/launchpad/gcc-arm-none-eabi-5_4-2016q3/bin/../lib/gcc/arm-none-eabi/5.4.1/../../../../arm-none-eabi/lib/armv7-m/libc.a(lib_a-reallocr.o)
                                                  /home/deh/launchpad/gcc-arm-none-eabi-5_4-2016q3/bin/../lib/gcc/arm-none-eabi/5.4.1/../../../../arm-none-eabi/lib/armv7-m/libc.a(lib_a-svfiprintf.o)
memset                                            /home/deh/launchpad/gcc-arm-none-eabi-5_4-2016q3/bin/../lib/gcc/arm-none-eabi/5.4.1/../../../../arm-none-eabi/lib/armv7-m/libc.a(lib_a-memset.o)
                                                  /home/deh/launchpad/gcc-arm-none-eabi-5_4-2016q3/bin/../lib/gcc/arm-none-eabi/5.4.1/../../../../arm-none-eabi/lib/armv7-m/libc.a(lib_a-callocr.o)
                                                  build/tasks.o
                                                  build/main.o
                                                  /home/deh/launchpad/gcc-arm-none-eabi-5_4-2016q3/bin/../lib/gcc/arm-none-eabi/5.4.1/../../../../arm-none-eabi/lib/armv7-m/crt0.o
morse_hex                                         build/morse.o
morse_number                                      build/morse.o
morse_string                                      build/morse.o
morse_trap                                        build/morse.o
                                                  build/ContactorTask.o
                                                  build/ContactorStates.o
                                                  build/contactor_func_init.o
                                                  build/ContactorEvents.o
                                                  build/adcparamsinit.o
                                                  build/ADCTask.o
                                                  build/adctask.o
                                                  build/MailboxTask.o
                                                  build/SerialTaskReceive.o
                                                  build/CanTask.o
                                                  build/main.o
mrse                                              build/morse.o
osAbortDelay                                      build/cmsis_os.o
osDelay                                           build/cmsis_os.o
                                                  build/SerialTaskReceive.o
                                                  build/CanTask.o
                                                  build/SerialTaskSend.o
                                                  build/main.o
osDelayUntil                                      build/cmsis_os.o
osKernelRunning                                   build/cmsis_os.o
osKernelStart                                     build/cmsis_os.o
                                                  build/main.o
osKernelSysTick                                   build/cmsis_os.o
osMailAlloc                                       build/cmsis_os.o
osMailCAlloc                                      build/cmsis_os.o
osMailCreate                                      build/cmsis_os.o
osMailFree                                        build/cmsis_os.o
osMailGet                                         build/cmsis_os.o
osMailPut                                         build/cmsis_os.o
osMessageAvailableSpace                           build/cmsis_os.o
osMessageCreate                                   build/cmsis_os.o
osMessageDelete                                   build/cmsis_os.o
osMessageGet                                      build/cmsis_os.o
osMessagePeek                                     build/cmsis_os.o
osMessagePut                                      build/cmsis_os.o
osMessageWaiting                                  build/cmsis_os.o
osMutexCreate                                     build/cmsis_os.o
osMutexDelete                                     build/cmsis_os.o
osMutexRelease                                    build/cmsis_os.o
osMutexWait                                       build/cmsis_os.o
osPoolAlloc                                       build/cmsis_os.o
osPoolCAlloc                                      build/cmsis_os.o
osPoolCreate                                      build/cmsis_os.o
osPoolFree                                        build/cmsis_os.o
osRecursiveMutexCreate                            build/cmsis_os.o
osRecursiveMutexRelease                           build/cmsis_os.o
osRecursiveMutexWait                              build/cmsis_os.o
osSemaphoreCreate                                 build/cmsis_os.o
                                                  build/yprintf.o
osSemaphoreDelete                                 build/cmsis_os.o
osSemaphoreGetCount                               build/cmsis_os.o
osSemaphoreRelease                                build/cmsis_os.o
osSemaphoreWait                                   build/cmsis_os.o
osSignalSet                                       build/cmsis_os.o
osSignalWait                                      build/cmsis_os.o
osSystickHandler                                  build/cmsis_os.o
osThreadCreate                                    build/cmsis_os.o
                                                  build/ContactorTask.o
                                                  build/ADCTask.o
                                                  build/MailboxTask.o
                                                  build/CanTask.o
                                                  build/main.o
osThreadGetId                                     build/cmsis_os.o
osThreadGetPriority                               build/cmsis_os.o
osThreadList                                      build/cmsis_os.o
osThreadResume                                    build/cmsis_os.o
osThreadResumeAll                                 build/cmsis_os.o
osThreadSetPriority                               build/cmsis_os.o
osThreadSuspend                                   build/cmsis_os.o
osThreadSuspendAll                                build/cmsis_os.o
osThreadTerminate                                 build/cmsis_os.o
osThreadYield                                     build/cmsis_os.o
osTimerCreate                                     build/cmsis_os.o
osTimerDelete                                     build/cmsis_os.o
osTimerStart                                      build/cmsis_os.o
osTimerStop                                       build/cmsis_os.o
pFlash                                            build/stm32f1xx_hal_flash.o
                                                  build/stm32f1xx_hal_flash_ex.o
payload_extract                                   build/payload_extract.o
                                                  build/MailboxTask.o
pbhd                                              build/SerialTaskSend.o
pcQueueGetName                                    build/queue.o
pcTaskGetName                                     build/tasks.o
pcTimerGetName                                    build/timers.o
pctl0                                             build/main.o
                                                  build/contactor_func_init.o
pvPortMalloc                                      build/heap_4.o
                                                  build/cmsis_os.o
                                                  build/timers.o
                                                  build/tasks.o
                                                  build/queue.o
                                                  build/event_groups.o
pvTaskIncrementMutexHeldCount                     build/tasks.o
                                                  build/queue.o
pvTimerGetTimerID                                 build/timers.o
pxCurrentTCB                                      build/tasks.o
                                                  build/port.o
pxPortInitialiseStack                             build/port.o
                                                  build/tasks.o
ratiometric_cal_zero_CURRENTMOTOR                 build/adcparamsinit.o
ratiometric_cal_zero_CURRENTTOTAL                 build/adcparamsinit.o
                                                  build/ContactorStates.o
setlocale                                         /home/deh/launchpad/gcc-arm-none-eabi-5_4-2016q3/bin/../lib/gcc/arm-none-eabi/5.4.1/../../../../arm-none-eabi/lib/armv7-m/libc.a(lib_a-locale.o)
software_init_hook                                /home/deh/launchpad/gcc-arm-none-eabi-5_4-2016q3/bin/../lib/gcc/arm-none-eabi/5.4.1/../../../../arm-none-eabi/lib/armv7-m/crt0.o
stackwatermark_show                               build/stackwatermark.o
                                                  build/main.o
strcmp                                            /home/deh/launchpad/gcc-arm-none-eabi-5_4-2016q3/bin/../lib/gcc/arm-none-eabi/5.4.1/../../../../arm-none-eabi/lib/armv7-m/libc.a(lib_a-strcmp.o)
                                                  /home/deh/launchpad/gcc-arm-none-eabi-5_4-2016q3/bin/../lib/gcc/arm-none-eabi/5.4.1/../../../../arm-none-eabi/lib/armv7-m/libc.a(lib_a-locale.o)
strlen                                            /home/deh/launchpad/gcc-arm-none-eabi-5_4-2016q3/bin/../lib/gcc/arm-none-eabi/5.4.1/../../../../arm-none-eabi/lib/armv7-m/libc.a(lib_a-strlen-stub.o)
                                                  /home/deh/launchpad/gcc-arm-none-eabi-5_4-2016q3/bin/../lib/gcc/arm-none-eabi/5.4.1/../../../../arm-none-eabi/lib/armv7-m/libc.a(lib_a-svfiprintf.o)
                                                  /home/deh/launchpad/gcc-arm-none-eabi-5_4-2016q3/bin/../lib/gcc/arm-none-eabi/5.4.1/../../../../arm-none-eabi/lib/armv7-m/libc.a(lib_a-svfprintf.o)
                                                  build/yprintf.o
                                                  build/tasks.o
strncpy                                           /home/deh/launchpad/gcc-arm-none-eabi-5_4-2016q3/bin/../lib/gcc/arm-none-eabi/5.4.1/../../../../arm-none-eabi/lib/armv7-m/libc.a(lib_a-strncpy.o)
                                                  build/yprintf.o
transition_faulting                               build/ContactorStates.o
ulTaskNotifyTake                                  build/tasks.o
uwTick                                            build/stm32f1xx_hal.o
uwTickFreq                                        build/stm32f1xx_hal.o
uwTickPrio                                        build/stm32f1xx_hal.o
uxListRemove                                      build/list.o
                                                  build/timers.o
                                                  build/tasks.o
uxQueueMessagesWaiting                            build/queue.o
                                                  build/cmsis_os.o
uxQueueMessagesWaitingFromISR                     build/queue.o
                                                  build/cmsis_os.o
uxQueueSpacesAvailable                            build/queue.o
                                                  build/cmsis_os.o
uxTaskGetNumberOfTasks                            build/tasks.o
uxTaskGetStackHighWaterMark                       build/tasks.o
                                                  build/stackwatermark.o
uxTaskPriorityGet                                 build/tasks.o
                                                  build/cmsis_os.o
uxTaskPriorityGetFromISR                          build/tasks.o
                                                  build/cmsis_os.o
uxTaskResetEventItemValue                         build/tasks.o
                                                  build/event_groups.o
vApplicationGetIdleTaskMemory                     build/freertos.o
                                                  build/tasks.o
vApplicationGetTimerTaskMemory                    build/freertos.o
                                                  build/timers.o
vApplicationStackOverflowHook                     build/freertos.o
                                                  build/tasks.o
vEventGroupClearBitsCallback                      build/event_groups.o
vEventGroupDelete                                 build/event_groups.o
vEventGroupSetBitsCallback                        build/event_groups.o
vListInitialise                                   build/list.o
                                                  build/timers.o
                                                  build/tasks.o
                                                  build/queue.o
                                                  build/event_groups.o
vListInitialiseItem                               build/list.o
                                                  build/timers.o
                                                  build/tasks.o
vListInsert                                       build/list.o
                                                  build/timers.o
                                                  build/tasks.o
vListInsertEnd                                    build/list.o
                                                  build/tasks.o
vPortEndScheduler                                 build/port.o
                                                  build/tasks.o
vPortEnterCritical                                build/port.o
                                                  build/adctask.o
                                                  build/MailboxTask.o
                                                  build/SerialTaskReceive.o
                                                  build/getserialbuf.o
                                                  build/can_iface.o
                                                  build/SerialTaskSend.o
                                                  build/cmsis_os.o
                                                  build/timers.o
                                                  build/tasks.o
                                                  build/queue.o
                                                  build/event_groups.o
vPortExitCritical                                 build/port.o
                                                  build/adctask.o
                                                  build/MailboxTask.o
                                                  build/SerialTaskReceive.o
                                                  build/getserialbuf.o
                                                  build/can_iface.o
                                                  build/SerialTaskSend.o
                                                  build/cmsis_os.o
                                                  build/timers.o
                                                  build/tasks.o
                                                  build/queue.o
                                                  build/event_groups.o
vPortFree                                         build/heap_4.o
                                                  build/cmsis_os.o
                                                  build/timers.o
                                                  build/tasks.o
                                                  build/queue.o
                                                  build/event_groups.o
vPortInitialiseBlocks                             build/heap_4.o
vPortSetupTimerInterrupt                          build/port.o
vPortValidateInterruptPriority                    build/port.o
                                                  build/tasks.o
                                                  build/queue.o
vQueueAddToRegistry                               build/queue.o
                                                  build/timers.o
vQueueDelete                                      build/queue.o
                                                  build/cmsis_os.o
vQueueUnregisterQueue                             build/queue.o
vQueueWaitForMessageRestricted                    build/queue.o
                                                  build/timers.o
vSerialTaskSendQueueBuf                           build/SerialTaskSend.o
                                                  build/yprintf.o
vTaskDelay                                        build/tasks.o
                                                  build/cmsis_os.o
vTaskDelete                                       build/tasks.o
                                                  build/cmsis_os.o
vTaskEndScheduler                                 build/tasks.o
vTaskMissedYield                                  build/tasks.o
                                                  build/queue.o
vTaskNotifyGiveFromISR                            build/tasks.o
vTaskPlaceOnEventList                             build/tasks.o
                                                  build/queue.o
vTaskPlaceOnEventListRestricted                   build/tasks.o
                                                  build/queue.o
vTaskPlaceOnUnorderedEventList                    build/tasks.o
                                                  build/event_groups.o
vTaskPriorityInherit                              build/tasks.o
                                                  build/queue.o
vTaskPrioritySet                                  build/tasks.o
                                                  build/ContactorTask.o
                                                  build/ADCTask.o
                                                  build/MailboxTask.o
                                                  build/CanTask.o
                                                  build/cmsis_os.o
vTaskResume                                       build/tasks.o
                                                  build/cmsis_os.o
vTaskSetTimeOutState                              build/tasks.o
                                                  build/queue.o
vTaskStartScheduler                               build/tasks.o
                                                  build/cmsis_os.o
vTaskSuspend                                      build/tasks.o
                                                  build/CanTask.o
                                                  build/cmsis_os.o
vTaskSuspendAll                                   build/tasks.o
                                                  build/heap_4.o
                                                  build/cmsis_os.o
                                                  build/timers.o
                                                  build/queue.o
                                                  build/event_groups.o
vTaskSwitchContext                                build/tasks.o
                                                  build/port.o
vTimerSetTimerID                                  build/timers.o
vsnprintf                                         /home/deh/launchpad/gcc-arm-none-eabi-5_4-2016q3/bin/../lib/gcc/arm-none-eabi/5.4.1/../../../../arm-none-eabi/lib/armv7-m/libc.a(lib_a-vsnprintf.o)
                                                  build/yprintf.o
vsnprintfSemaphoreHandle                          build/yprintf.o
xADCTaskCreate                                    build/ADCTask.o
                                                  build/main.o
xCanRxTaskCreate                                  build/CanTask.o
xCanTxTaskCreate                                  build/CanTask.o
                                                  build/main.o
xContactorTaskCreate                              build/ContactorTask.o
                                                  build/main.o
xEventGroupClearBits                              build/event_groups.o
xEventGroupCreate                                 build/event_groups.o
xEventGroupCreateStatic                           build/event_groups.o
xEventGroupGetBitsFromISR                         build/event_groups.o
xEventGroupSetBits                                build/event_groups.o
xEventGroupSync                                   build/event_groups.o
xEventGroupWaitBits                               build/event_groups.o
xMailboxTaskCreate                                build/MailboxTask.o
                                                  build/main.o
xPortGetFreeHeapSize                              build/heap_4.o
                                                  build/main.o
xPortGetMinimumEverFreeHeapSize                   build/heap_4.o
xPortStartScheduler                               build/port.o
                                                  build/tasks.o
xQueueCreateMutex                                 build/queue.o
                                                  build/cmsis_os.o
xQueueCreateMutexStatic                           build/queue.o
                                                  build/cmsis_os.o
xQueueGenericCreate                               build/queue.o
                                                  build/getserialbuf.o
                                                  build/CanTask.o
                                                  build/SerialTaskSend.o
                                                  build/cmsis_os.o
xQueueGenericCreateStatic                         build/queue.o
                                                  build/cmsis_os.o
                                                  build/timers.o
xQueueGenericReceive                              build/queue.o
                                                  build/yprintf.o
                                                  build/CanTask.o
                                                  build/SerialTaskSend.o
                                                  build/cmsis_os.o
                                                  build/timers.o
xQueueGenericReset                                build/queue.o
xQueueGenericSend                                 build/queue.o
                                                  build/contactor_msgs.o
                                                  build/contactor_cmd_msg.o
                                                  build/yprintf.o
                                                  build/getserialbuf.o
                                                  build/SerialTaskSend.o
                                                  build/cmsis_os.o
                                                  build/timers.o
xQueueGenericSendFromISR                          build/queue.o
                                                  build/cmsis_os.o
                                                  build/timers.o
xQueueGiveFromISR                                 build/queue.o
                                                  build/SerialTaskSend.o
                                                  build/cmsis_os.o
xQueueIsQueueEmptyFromISR                         build/queue.o
xQueueIsQueueFullFromISR                          build/queue.o
xQueuePeekFromISR                                 build/queue.o
xQueueReceiveFromISR                              build/queue.o
                                                  build/cmsis_os.o
xQueueRegistry                                    build/queue.o
xSerialTaskReceiveCreate                          build/SerialTaskReceive.o
                                                  build/main.o
xSerialTaskReceiveGetline                         build/SerialTaskReceive.o
                                                  build/contactor_hv.o
xSerialTaskRxAdduart                              build/SerialTaskReceive.o
                                                  build/ContactorTask.o
xSerialTaskSendAdd                                build/SerialTaskSend.o
                                                  build/main.o
xSerialTaskSendCreate                             build/SerialTaskSend.o
                                                  build/main.o
xTaskCheckForTimeOut                              build/tasks.o
                                                  build/queue.o
xTaskCreate                                       build/tasks.o
                                                  build/SerialTaskReceive.o
                                                  build/SerialTaskSend.o
                                                  build/cmsis_os.o
xTaskCreateStatic                                 build/tasks.o
                                                  build/cmsis_os.o
                                                  build/timers.o
xTaskGenericNotify                                build/tasks.o
                                                  build/ContactorTask.o
                                                  build/ADCTask.o
                                                  build/MailboxTask.o
                                                  build/cmsis_os.o
xTaskGenericNotifyFromISR                         build/tasks.o
                                                  build/adctask.o
                                                  build/SerialTaskReceive.o
                                                  build/can_iface.o
                                                  build/cmsis_os.o
xTaskGetCurrentTaskHandle                         build/tasks.o
                                                  build/MailboxTask.o
                                                  build/SerialTaskReceive.o
                                                  build/getserialbuf.o
                                                  build/can_iface.o
                                                  build/cmsis_os.o
xTaskGetHandle                                    build/tasks.o
xTaskGetSchedulerState                            build/tasks.o
                                                  build/cmsis_os.o
                                                  build/timers.o
                                                  build/queue.o
                                                  build/event_groups.o
xTaskGetTickCount                                 build/tasks.o
                                                  build/ContactorTask.o
                                                  build/ContactorEvents.o
                                                  build/cmsis_os.o
                                                  build/timers.o
xTaskGetTickCountFromISR                          build/tasks.o
                                                  build/cmsis_os.o
xTaskIncrementTick                                build/tasks.o
                                                  build/port.o
xTaskNotifyStateClear                             build/tasks.o
xTaskNotifyWait                                   build/tasks.o
                                                  build/ContactorTask.o
                                                  build/ADCTask.o
                                                  build/MailboxTask.o
                                                  build/SerialTaskReceive.o
                                                  build/cmsis_os.o
xTaskPriorityDisinherit                           build/tasks.o
                                                  build/queue.o
xTaskRemoveFromEventList                          build/tasks.o
                                                  build/queue.o
xTaskRemoveFromUnorderedEventList                 build/tasks.o
                                                  build/event_groups.o
xTaskResumeAll                                    build/tasks.o
                                                  build/heap_4.o
                                                  build/cmsis_os.o
                                                  build/timers.o
                                                  build/queue.o
                                                  build/event_groups.o
xTaskResumeFromISR                                build/tasks.o
                                                  build/cmsis_os.o
xTimerCreate                                      build/timers.o
                                                  build/ContactorTask.o
                                                  build/cmsis_os.o
xTimerCreateStatic                                build/timers.o
                                                  build/cmsis_os.o
xTimerCreateTimerTask                             build/timers.o
                                                  build/tasks.o
xTimerGenericCommand                              build/timers.o
                                                  build/ContactorTask.o
                                                  build/ContactorStates.o
                                                  build/ContactorEvents.o
                                                  build/cmsis_os.o
xTimerGetExpiryTime                               build/timers.o
xTimerGetPeriod                                   build/timers.o
xTimerGetTimerDaemonTaskHandle                    build/timers.o
xTimerIsTimerActive                               build/timers.o
yprintf                                           build/yprintf.o
                                                  build/stackwatermark.o
                                                  build/main.o
yprintf_init                                      build/yprintf.o
                                                  build/main.o
yputs                                             build/yprintf.o
